(dp0
S'0413BL'
p1
(lp2
F0.25
aF0.75
a(lp3
S'0413BR'
p4
aasS'1319BR'
p5
(lp6
F0.75
aF0.75
a(lp7
S'1419BL'
p8
aasS'1008BR'
p9
(lp10
F0.75
aF0.75
a(lp11
S'1008TR'
p12
aasS'0408BR'
p13
(lp14
F0.75
aF0.75
a(lp15
S'0508BL'
p16
aasS'1115O6'
p17
(lp18
F1.0728258646732471
aF0.32634177912687146
a(lp19
S'1115O7'
p20
aasS'0300BR'
p21
(lp22
F0.75
aF0.75
a(lp23
S'0400BL'
p24
aasS'0002BR'
p25
(lp26
F0.75
aF0.75
a(lp27
S'0002TR'
p28
aasS'0300BL'
p29
(lp30
F0.25
aF0.75
a(lp31
S'0300BR'
p32
aasS'0408BL'
p33
(lp34
F0.25
aF0.75
a(lp35
S'0408BR'
p36
aasS'1008BL'
p37
(lp38
F0.25
aF0.75
a(lp39
S'1009TL'
p40
aasS'0413BR'
p41
(lp42
F0.75
aF0.75
a(lp43
S'0513BL'
p44
aasS'1010TR'
p45
(lp46
F0.75
aF0.25
a(lp47
S'1009BR'
p48
aasS'0900TR'
p49
(lp50
F0.75
aF0.25
a(lp51
S'0900TL'
p52
aasS'1707TR'
p53
(lp54
F0.75
aF0.25
a(lp55
S'1706BR'
p56
aasS'0501TR'
p57
(lp58
F0.75
aF0.25
a(lp59
S'0500BR'
p60
aasS'0212O9'
p61
(lp62
F1.4322836103643952
aF1.8329186266037962
a(lp63
S'0212TR'
p64
aasS'1115O5'
p65
(lp66
F1.224103259072614
aF0.4190446856425587
a(lp67
S'1115O6'
p68
aasS'1910BR'
p69
(lp70
F0.75
aF0.75
a(lp71
S'1910TR'
p72
aasS'1305BL'
p73
(lp74
F0.25
aF0.75
a(lp75
S'1305BR'
p76
aS'1306TL'
p77
aS'1305CC'
p78
aasS'1907TR'
p79
(lp80
F0.75
aF0.25
a(lp81
S'1906BR'
p82
aasS'0607I8'
p83
(lp84
F0.87991879053690347
aF1.1160328759856615
a(lp85
S'0607I9'
p86
aasS'0607I9'
p87
(lp88
F0.78786668727210352
aF1.1702557086648218
a(lp89
S'0608TL'
p90
aasS'1305BR'
p91
(lp92
F0.75
aF0.75
a(lp93
S'1405BL'
p94
aS'1305TR'
p95
aS'1305CC'
p96
aasS'1103CC'
p97
(lp98
F0.5
aF0.5
a(lp99
S'1103TL'
p100
aS'1103TR'
p101
aS'1103BL'
p102
aS'1103BR'
p103
aasS'0607I0'
p104
(lp105
F1.265625
aF0.390625
a(lp106
S'0607I1'
p107
aasS'0607I1'
p108
(lp109
F1.2591028826861568
aF0.49726067547950403
a(lp110
S'0607I2'
p111
aasS'0501TL'
p112
(lp113
F0.25
aF0.25
a(lp114
S'0501BL'
p115
aasS'0607I3'
p116
(lp117
F1.2075078731850515
aF0.70419695585213771
a(lp118
S'0607I4'
p119
aasS'0607I4'
p120
(lp121
F1.1632041437515612
aF0.80141261743765446
a(lp122
S'0607I5'
p123
aasS'0607I5'
p124
(lp125
F1.1073830387528678
aF0.89250438180716529
a(lp126
S'0607I6'
p127
aasS'0607I6'
p128
(lp129
F1.04087672229272
aF0.97611428056400096
a(lp130
S'0607I7'
p131
aasS'0900TL'
p132
(lp133
F0.25
aF0.25
a(lp134
S'0800TR'
p135
aasS'1915TR'
p136
(lp137
F0.75
aF0.25
a(lp138
S'1914BR'
p139
aasS'1212BL'
p140
(lp141
F0.25
aF0.75
a(lp142
S'1212BR'
p143
aasS'0511BL'
p144
(lp145
F0.25
aF0.75
a(lp146
S'0512TL'
p147
aasS'1305TR'
p148
(lp149
F0.75
aF0.25
a(lp150
S'1305TL'
p151
aS'1304BR'
p152
aS'1305CC'
p153
aasS'1115O4'
p154
(lp155
F1.3629554123652154
aF0.52949267547816103
a(lp156
S'1115O5'
p157
aasS'1312BL'
p158
(lp159
F0.25
aF0.75
a(lp160
S'1312BR'
p161
aS'1312CC'
p162
aasS'1502BR'
p163
(lp164
F0.75
aF0.75
a(lp165
S'1502TR'
p166
aasS'1905TR'
p167
(lp168
F0.75
aF0.25
a(lp169
S'1904BR'
p170
aasS'1502BL'
p171
(lp172
F0.25
aF0.75
a(lp173
S'1503TL'
p174
aasS'1905TL'
p175
(lp176
F0.25
aF0.25
a(lp177
S'1905BL'
p178
aasS'0000O9'
p179
(lp180
F0.16708137339620377
aF1.4322836103643952
a(lp181
S'0100BR'
p182
aasS'0000O8'
p183
(lp184
F0.1994140227551926
aF1.2578322454567332
a(lp185
S'0000O9'
p186
aasS'0414I2'
p187
(lp188
F1.2396337604914969
aF0.60230665864970923
a(lp189
S'0414I3'
p190
aasS'0414I3'
p191
(lp192
F1.2075078731850515
aF0.70419695585213771
a(lp193
S'0414I4'
p194
aasS'0414I0'
p195
(lp196
F1.265625
aF0.390625
a(lp197
S'0414I1'
p198
aasS'1312BR'
p199
(lp200
F0.75
aF0.75
a(lp201
S'1312TR'
p202
aS'1312CC'
p203
aasS'0000O3'
p204
(lp205
F0.6560392234981689
aF0.51268764123878463
a(lp206
S'0000O4'
p207
aasS'0000O2'
p208
(lp209
F0.79679781214407142
aF0.40467977738095473
a(lp210
S'0000O3'
p211
aasS'0000O1'
p212
(lp213
F0.9496700550659708
aF0.31463114453877816
a(lp214
S'0000O2'
p215
aasS'0000O0'
p216
(lp217
F1.1123769792298879
aF0.24388416042047689
a(lp218
S'0000O1'
p219
aasS'0000O7'
p220
(lp221
F0.25276594274625364
aF1.0886215733169853
a(lp222
S'0000O8'
p223
aasS'0000O6'
p224
(lp225
F0.3263417791268719
aF0.9271741353267523
a(lp226
S'0000O7'
p227
aasS'0000O5'
p228
(lp229
F0.4190446856425587
aF0.77589674092738603
a(lp230
S'0000O6'
p231
aasS'0000O4'
p232
(lp233
F0.52949267547816148
aF0.63704458763478411
a(lp234
S'0000O5'
p235
aasS'1115I1'
p236
(lp237
F0.49726067547950425
aF0.74089711731384322
a(lp238
S'1115I2'
p239
aasS'1713TL'
p240
(lp241
F0.25
aF0.25
a(lp242
S'1713BL'
p243
aasS'1015TL'
p244
(lp245
F0.25
aF0.25
a(lp246
S'0915TR'
p247
aasS'1906TL'
p248
(lp249
F0.25
aF0.25
a(lp250
S'1906BL'
p251
aasS'0717TL'
p252
(lp253
F0.25
aF0.25
a(lp254
S'0717BL'
p255
aasS'1009BR'
p256
(lp257
F0.75
aF0.75
a(lp258
S'1009TR'
p259
aasS'1908TL'
p260
(lp261
F0.25
aF0.25
a(lp262
S'1908BL'
p263
aasS'0513CC'
p264
(lp265
F0.5
aF0.5
a(lp266
S'0513TL'
p267
aS'0513TR'
p268
aS'0513BL'
p269
aS'0513BR'
p270
aasS'1010TL'
p271
(lp272
F0.25
aF0.25
a(lp273
S'1010BL'
p274
aasS'1908TR'
p275
(lp276
F0.75
aF0.25
a(lp277
S'1907BR'
p278
aasS'1009BL'
p279
(lp280
F0.25
aF0.75
a(lp281
S'1010TL'
p282
aasS'0618O7'
p283
(lp284
F1.7472340572537464
aF0.9113784266830145
a(lp285
S'0618O8'
p286
aasS'0100TR'
p287
(lp288
F0.75
aF0.25
a(lp289
S'0000O0'
p290
aasS'1708TL'
p291
(lp292
F0.25
aF0.25
a(lp293
S'1708BL'
p294
aasS'0717TR'
p295
(lp296
F0.75
aF0.25
a(lp297
S'0716BR'
p298
aasS'1713TR'
p299
(lp300
F0.75
aF0.25
a(lp301
S'1712BR'
p302
aasS'1015TR'
p303
(lp304
F0.75
aF0.25
a(lp305
S'1015TL'
p306
aasS'1419TL'
p307
(lp308
F0.25
aF0.25
a(lp309
S'1319TR'
p310
aasS'1306TR'
p311
(lp312
F0.75
aF0.25
a(lp313
S'1305BR'
p314
aasS'1818O9'
p315
(lp316
F1.832918626603796
aF0.567716389635605
a(lp317
S'1819TL'
p318
aasS'1908BR'
p319
(lp320
F0.75
aF0.75
a(lp321
S'1908TR'
p322
aasS'0014TR'
p323
(lp324
F0.75
aF0.25
a(lp325
S'0013BR'
p326
aasS'0013BL'
p327
(lp328
F0.25
aF0.75
a(lp329
S'0014TL'
p330
aasS'1916TL'
p331
(lp332
F0.25
aF0.25
a(lp333
S'1916BL'
p334
aasS'1503CC'
p335
(lp336
F0.5
aF0.5
a(lp337
S'1503TL'
p338
aS'1503TR'
p339
aS'1503BL'
p340
aS'1503BR'
p341
aasS'0013BR'
p342
(lp343
F0.75
aF0.75
a(lp344
S'0013TR'
p345
aasS'1015BL'
p346
(lp347
F0.25
aF0.75
a(lp348
S'1015BR'
p349
aasS'1908BL'
p350
(lp351
F0.25
aF0.75
a(lp352
S'1909TL'
p353
aasS'1306TL'
p354
(lp355
F0.25
aF0.25
a(lp356
S'1306BL'
p357
aasS'1218O0'
p358
(lp359
F0.24388416042047689
aF0.88762302077011257
a(lp360
S'1218O1'
p361
aasS'1218O3'
p362
(lp363
F0.51268764123878463
aF1.3439607765018309
a(lp364
S'1218O4'
p365
aasS'1218O2'
p366
(lp367
F0.40467977738095517
aF1.2032021878559291
a(lp368
S'1218O3'
p369
aasS'1218O5'
p370
(lp371
F0.77589674092738592
aF1.5809553143574411
a(lp372
S'1218O6'
p373
aasS'1218O4'
p374
(lp375
F0.63704458763478411
aF1.4705073245218385
a(lp376
S'1218O5'
p377
aasS'1218O7'
p378
(lp379
F1.0886215733169855
aF1.7472340572537464
a(lp380
S'1218O8'
p381
aasS'1218O6'
p382
(lp383
F0.9271741353267523
aF1.6736582208731281
a(lp384
S'1218O7'
p385
aasS'1913TL'
p386
(lp387
F0.25
aF0.25
a(lp388
S'1913BL'
p389
aasS'0015BR'
p390
(lp391
F0.75
aF0.75
a(lp392
S'0115BL'
p393
aS'0015TR'
p394
aasS'0215TL'
p395
(lp396
F0.25
aF0.25
a(lp397
S'0115TR'
p398
aasS'0502BL'
p399
(lp400
F0.25
aF0.75
a(lp401
S'0503TL'
p402
aasS'0115BL'
p403
(lp404
F0.25
aF0.75
a(lp405
S'0115BR'
p406
aasS'0115BR'
p407
(lp408
F0.75
aF0.75
a(lp409
S'0215BL'
p410
aasS'0502BR'
p411
(lp412
F0.75
aF0.75
a(lp413
S'0502TR'
p414
aasS'0015BL'
p415
(lp416
F0.25
aF0.75
a(lp417
S'0015BR'
p418
aS'0016TL'
p419
aasS'1913TR'
p420
(lp421
F0.75
aF0.25
a(lp422
S'1912BR'
p423
aasS'1419TR'
p424
(lp425
F0.75
aF0.25
a(lp426
S'1419TL'
p427
aasS'0010TR'
p428
(lp429
F0.75
aF0.25
a(lp430
S'0009BR'
p431
aasS'0717BR'
p432
(lp433
F0.75
aF0.75
a(lp434
S'0717TR'
p435
aasS'0315BR'
p436
(lp437
F0.75
aF0.75
a(lp438
S'0415BL'
p439
aasS'0613O5'
p440
(lp441
F1.224103259072614
aF0.4190446856425587
a(lp442
S'0613O6'
p443
aasS'0613O4'
p444
(lp445
F1.3629554123652154
aF0.52949267547816103
a(lp446
S'0613O5'
p447
aasS'0508BR'
p448
(lp449
F0.75
aF0.75
a(lp450
S'0608BL'
p451
aS'0508CC'
p452
aasS'0613O6'
p453
(lp454
F1.0728258646732471
aF0.32634177912687146
a(lp455
S'0613O7'
p456
aasS'0613O1'
p457
(lp458
F1.6853688554612218
aF0.94967005506597069
a(lp459
S'0613O2'
p460
aasS'0613O0'
p461
(lp462
F1.7561158395795231
aF1.1123769792298879
a(lp463
S'0613O1'
p464
aasS'0704I8'
p465
(lp466
F1.1200812094630967
aF0.88396712401433841
a(lp467
S'0704I9'
p468
aasS'0704I9'
p469
(lp470
F1.2121333127278964
aF0.82974429133517824
a(lp471
S'0804BR'
p472
aasS'0704I6'
p473
(lp474
F0.95912327770728001
aF1.0238857194359992
a(lp475
S'0704I7'
p476
aasS'0704I7'
p477
(lp478
F1.0353233496333061
aF0.94900411730507461
a(lp479
S'0704I8'
p480
aasS'0704I4'
p481
(lp482
F0.836795856248439
aF1.1985873825623454
a(lp483
S'0704I5'
p484
aasS'0704I5'
p485
(lp486
F0.89261696124713219
aF1.1074956181928346
a(lp487
S'0704I6'
p488
aasS'0704I2'
p489
(lp490
F0.76036623950850313
aF1.397693341350291
a(lp491
S'0704I3'
p492
aasS'0704I3'
p493
(lp494
F0.79249212681494852
aF1.2958030441478621
a(lp495
S'0704I4'
p496
aasS'0704I0'
p497
(lp498
F0.734375
aF1.609375
a(lp499
S'0704I1'
p500
aasS'0704I1'
p501
(lp502
F0.74089711731384322
aF1.5027393245204961
a(lp503
S'0704I2'
p504
aasS'0205BR'
p505
(lp506
F0.75
aF0.75
a(lp507
S'0205TR'
p508
aasS'1612BL'
p509
(lp510
F0.25
aF0.75
a(lp511
S'1612BR'
p512
aasS'0300TL'
p513
(lp514
F0.25
aF0.25
a(lp515
S'0200TR'
p516
aasS'0514TR'
p517
(lp518
F0.75
aF0.25
a(lp519
S'0513BR'
p520
aasS'1007BL'
p521
(lp522
F0.25
aF0.75
a(lp523
S'1008TL'
p524
aasS'0510TR'
p525
(lp526
F0.75
aF0.25
a(lp527
S'0509BR'
p528
aasS'0511TR'
p529
(lp530
F0.75
aF0.25
a(lp531
S'0510BR'
p532
aasS'1704BL'
p533
(lp534
F0.25
aF0.75
a(lp535
S'1705TL'
p536
aasS'1600TR'
p537
(lp538
F0.75
aF0.25
a(lp539
S'1500O0'
p540
aasS'1715TL'
p541
(lp542
F0.25
aF0.25
a(lp543
S'1715BL'
p544
aasS'1704BR'
p545
(lp546
F0.75
aF0.75
a(lp547
S'1603O0'
p548
aasS'1008TR'
p549
(lp550
F0.75
aF0.25
a(lp551
S'1007BR'
p552
aasS'0510TL'
p553
(lp554
F0.25
aF0.25
a(lp555
S'0510BL'
p556
aasS'0511TL'
p557
(lp558
F0.25
aF0.25
a(lp559
S'0511BL'
p560
aasS'1007BR'
p561
(lp562
F0.75
aF0.75
a(lp563
S'1007TR'
p564
aasS'1612BR'
p565
(lp566
F0.75
aF0.75
a(lp567
S'1712BL'
p568
aasS'0300TR'
p569
(lp570
F0.75
aF0.25
a(lp571
S'0300TL'
p572
aasS'0205BL'
p573
(lp574
F0.25
aF0.75
a(lp575
S'0206TL'
p576
aasS'0212I7'
p577
(lp578
F0.94900411730507461
aF0.96467665036669392
a(lp579
S'0212I8'
p580
aasS'1903TR'
p581
(lp582
F0.75
aF0.25
a(lp583
S'1902BR'
p584
aasS'1719BR'
p585
(lp586
F0.75
aF0.75
a(lp587
S'1719TR'
p588
aS'1719CC'
p589
aasS'0308TL'
p590
(lp591
F0.25
aF0.25
a(lp592
S'0208TR'
p593
aasS'0715BL'
p594
(lp595
F0.25
aF0.75
a(lp596
S'0715BR'
p597
aS'0716TL'
p598
aasS'1719BL'
p599
(lp600
F0.25
aF0.75
a(lp601
S'1719BR'
p602
aS'1719CC'
p603
aasS'1419BR'
p604
(lp605
F0.75
aF0.75
a(lp606
S'1519BL'
p607
aasS'1903TL'
p608
(lp609
F0.25
aF0.25
a(lp610
S'1903BL'
p611
aasS'0510BR'
p612
(lp613
F0.75
aF0.75
a(lp614
S'0510TR'
p615
aasS'1405TL'
p616
(lp617
F0.25
aF0.25
a(lp618
S'1305TR'
p619
aasS'0013TR'
p620
(lp621
F0.75
aF0.25
a(lp622
S'0012BR'
p623
aasS'1716BL'
p624
(lp625
F0.25
aF0.75
a(lp626
S'1717TL'
p627
aasS'1819BL'
p628
(lp629
F0.25
aF0.75
a(lp630
S'1818O0'
p631
aasS'1917BL'
p632
(lp633
F0.25
aF0.75
a(lp634
S'1918TL'
p635
aasS'0706BR'
p636
(lp637
F0.75
aF0.75
a(lp638
S'0706TR'
p639
aasS'1917BR'
p640
(lp641
F0.75
aF0.75
a(lp642
S'1917TR'
p643
aasS'0706BL'
p644
(lp645
F0.25
aF0.75
a(lp646
S'0707TL'
p647
aasS'0308TR'
p648
(lp649
F0.75
aF0.25
a(lp650
S'0308TL'
p651
aasS'0013TL'
p652
(lp653
F0.25
aF0.25
a(lp654
S'0013BL'
p655
aasS'0512BL'
p656
(lp657
F0.25
aF0.75
a(lp658
S'0513TL'
p659
aasS'0208TR'
p660
(lp661
F0.75
aF0.25
a(lp662
S'0207BR'
p663
aS'0208CC'
p664
aasS'0319TL'
p665
(lp666
F0.25
aF0.25
a(lp667
S'0219TR'
p668
aasS'0715CC'
p669
(lp670
F0.5
aF0.5
a(lp671
S'0715TR'
p672
aS'0715BL'
p673
aS'0715BR'
p674
aasS'0510BL'
p675
(lp676
F0.25
aF0.75
a(lp677
S'0511TL'
p678
aasS'1910BL'
p679
(lp680
F0.25
aF0.75
a(lp681
S'1911TL'
p682
aasS'1917TL'
p683
(lp684
F0.25
aF0.25
a(lp685
S'1917BL'
p686
aasS'0001BL'
p687
(lp688
F0.25
aF0.75
a(lp689
S'0002TL'
p690
aasS'0509TL'
p691
(lp692
F0.25
aF0.25
a(lp693
S'0509BL'
p694
aasS'1612TL'
p695
(lp696
F0.25
aF0.25
a(lp697
S'1512TR'
p698
aasS'1612TR'
p699
(lp700
F0.75
aF0.25
a(lp701
S'1612TL'
p702
aasS'1015BR'
p703
(lp704
F0.75
aF0.75
a(lp705
S'1115BL'
p706
aasS'0208BL'
p707
(lp708
F0.25
aF0.75
a(lp709
S'0208BR'
p710
aS'0209TL'
p711
aasS'0001BR'
p712
(lp713
F0.75
aF0.75
a(lp714
S'0000I0'
p715
aasS'1917TR'
p716
(lp717
F0.75
aF0.25
a(lp718
S'1916BR'
p719
aasS'1600BR'
p720
(lp721
F0.75
aF0.75
a(lp722
S'1700BL'
p723
aasS'0607I2'
p724
(lp725
F1.2396337604914969
aF0.60230665864970923
a(lp726
S'0607I3'
p727
aasS'0004BL'
p728
(lp729
F0.25
aF0.75
a(lp730
S'0005TL'
p731
aasS'0613BR'
p732
(lp733
F0.25
aF0.25
a(lp734
S'0513TR'
p735
aasS'0400TL'
p736
(lp737
F0.25
aF0.25
a(lp738
S'0300TR'
p739
aasS'0804TR'
p740
(lp741
F0.75
aF0.25
a(lp742
S'0704O0'
p743
aasS'0303BR'
p744
(lp745
F0.75
aF0.75
a(lp746
S'0403BL'
p747
aasS'0603TL'
p748
(lp749
F0.25
aF0.25
a(lp750
S'0503TR'
p751
aasS'1218TR'
p752
(lp753
F0.25
aF0.75
a(lp754
S'1217BR'
p755
aasS'1707TL'
p756
(lp757
F0.25
aF0.25
a(lp758
S'1707BL'
p759
aasS'1218TL'
p760
(lp761
F0.25
aF0.25
a(lp762
S'1218O0'
p763
aasS'0018O2'
p764
(lp765
F0.40467977738095517
aF1.2032021878559291
a(lp766
S'0018O3'
p767
aasS'0603TR'
p768
(lp769
F0.75
aF0.25
a(lp770
S'0603TL'
p771
aasS'0607I7'
p772
(lp773
F0.96467665036669392
aF1.0509958826949255
a(lp774
S'0607I8'
p775
aasS'0400TR'
p776
(lp777
F0.75
aF0.25
a(lp778
S'0400TL'
p779
aasS'0613O8'
p780
(lp781
F0.74216775454326678
aF0.19941402275519238
a(lp782
S'0613O9'
p783
aasS'0004BR'
p784
(lp785
F0.75
aF0.75
a(lp786
S'0004TR'
p787
aasS'1904BL'
p788
(lp789
F0.25
aF0.75
a(lp790
S'1905TL'
p791
aasS'0603BR'
p792
(lp793
F0.75
aF0.75
a(lp794
S'0703BL'
p795
aasS'1205TR'
p796
(lp797
F0.25
aF0.75
a(lp798
S'1104I0'
p799
aasS'0501BR'
p800
(lp801
F0.75
aF0.75
a(lp802
S'0501TR'
p803
aasS'1905BR'
p804
(lp805
F0.75
aF0.75
a(lp806
S'1905TR'
p807
aasS'1712CC'
p808
(lp809
F0.5
aF0.5
a(lp810
S'1712TL'
p811
aS'1712TR'
p812
aS'1712BL'
p813
aasS'0208CC'
p814
(lp815
F0.5
aF0.5
a(lp816
S'0208TR'
p817
aS'0208BL'
p818
aS'0208BR'
p819
aasS'1405BL'
p820
(lp821
F0.25
aF0.75
a(lp822
S'1404O0'
p823
aasS'1312TL'
p824
(lp825
F0.25
aF0.25
a(lp826
S'1212TR'
p827
aS'1312CC'
p828
aasS'0208BR'
p829
(lp830
F0.75
aF0.75
a(lp831
S'0308BL'
p832
aS'0208TR'
p833
aasS'1312TR'
p834
(lp835
F0.75
aF0.25
a(lp836
S'1312TL'
p837
aS'1311BR'
p838
aasS'0212I4'
p839
(lp840
F1.1985873825623454
aF1.163204143751561
a(lp841
S'0212I5'
p842
aasS'1905BL'
p843
(lp844
F0.25
aF0.75
a(lp845
S'1906TL'
p846
aasS'0501BL'
p847
(lp848
F0.25
aF0.75
a(lp849
S'0502TL'
p850
aasS'1904BR'
p851
(lp852
F0.75
aF0.75
a(lp853
S'1904TR'
p854
aasS'0603BL'
p855
(lp856
F0.25
aF0.75
a(lp857
S'0603BR'
p858
aasS'1217BL'
p859
(lp860
F0.25
aF0.75
a(lp861
S'1218TL'
p862
aasS'0303TR'
p863
(lp864
F0.75
aF0.25
a(lp865
S'0203O0'
p866
aasS'0618I8'
p867
(lp868
F0.87991879053690347
aF1.1160328759856615
a(lp869
S'0618I9'
p870
aasS'0618O5'
p871
(lp872
F1.5809553143574413
aF1.2241032590726137
a(lp873
S'0618O6'
p874
aasS'0618I9'
p875
(lp876
F0.78786668727210352
aF1.1702557086648218
a(lp877
S'0619TL'
p878
aasS'1710TL'
p879
(lp880
F0.25
aF0.25
a(lp881
S'1710BL'
p882
aasS'0016BL'
p883
(lp884
F0.25
aF0.75
a(lp885
S'0017TL'
p886
aasS'0700TR'
p887
(lp888
F0.75
aF0.25
a(lp889
S'0700TL'
p890
aasS'0700TL'
p891
(lp892
F0.25
aF0.25
a(lp893
S'0600TR'
p894
aasS'0016BR'
p895
(lp896
F0.75
aF0.75
a(lp897
S'0016TR'
p898
aasS'1710TR'
p899
(lp900
F0.75
aF0.25
a(lp901
S'1709BR'
p902
aasS'0119TR'
p903
(lp904
F0.25
aF0.75
a(lp905
S'0018I0'
p906
aasS'1713BL'
p907
(lp908
F0.25
aF0.75
a(lp909
S'1714TL'
p910
aasS'0115TR'
p911
(lp912
F0.75
aF0.25
a(lp913
S'0115TL'
p914
aasS'0016TR'
p915
(lp916
F0.75
aF0.25
a(lp917
S'0015BR'
p918
aasS'1708BR'
p919
(lp920
F0.75
aF0.75
a(lp921
S'1708TR'
p922
aasS'0007TL'
p923
(lp924
F0.25
aF0.25
a(lp925
S'0007BL'
p926
aasS'1902BR'
p927
(lp928
F0.75
aF0.75
a(lp929
S'1902TR'
p930
aasS'0206BR'
p931
(lp932
F0.75
aF0.75
a(lp933
S'0206TR'
p934
aasS'0206BL'
p935
(lp936
F0.25
aF0.75
a(lp937
S'0207TL'
p938
aasS'1706BR'
p939
(lp940
F0.75
aF0.75
a(lp941
S'1706TR'
p942
aasS'0219TR'
p943
(lp944
F0.75
aF0.25
a(lp945
S'0219TL'
p946
aasS'1902BL'
p947
(lp948
F0.25
aF0.75
a(lp949
S'1903TL'
p950
aasS'1103BL'
p951
(lp952
F0.25
aF0.75
a(lp953
S'1103BR'
p954
aS'1104TL'
p955
aS'1103CC'
p956
aasS'1708BL'
p957
(lp958
F0.25
aF0.75
a(lp959
S'1709TL'
p960
aasS'0319TR'
p961
(lp962
F0.75
aF0.25
a(lp963
S'0319TL'
p964
aasS'0016TL'
p965
(lp966
F0.25
aF0.25
a(lp967
S'0016BL'
p968
aasS'0115TL'
p969
(lp970
F0.25
aF0.25
a(lp971
S'0015TR'
p972
aasS'1713BR'
p973
(lp974
F0.75
aF0.75
a(lp975
S'1713TR'
p976
aasS'0414I6'
p977
(lp978
F1.04087672229272
aF0.97611428056400096
a(lp979
S'0414I7'
p980
aasS'0618I3'
p981
(lp982
F1.2075078731850515
aF0.70419695585213771
a(lp983
S'0618I4'
p984
aasS'0508TR'
p985
(lp986
F0.75
aF0.25
a(lp987
S'0508TL'
p988
aS'0508CC'
p989
aasS'0414I7'
p990
(lp991
F0.96467665036669392
aF1.0509958826949255
a(lp992
S'0414I8'
p993
aasS'0703BL'
p994
(lp995
F0.25
aF0.75
a(lp996
S'0703BR'
p997
aasS'1005BR'
p998
(lp999
F0.75
aF0.75
a(lp1000
S'0904O0'
p1001
aasS'0210TL'
p1002
(lp1003
F0.25
aF0.25
a(lp1004
S'0210BL'
p1005
aasS'0414I4'
p1006
(lp1007
F1.1632041437515612
aF0.80141261743765446
a(lp1008
S'0414I5'
p1009
aasS'0618I5'
p1010
(lp1011
F1.1073830387528678
aF0.89250438180716529
a(lp1012
S'0618I6'
p1013
aasS'0212I2'
p1014
(lp1015
F1.3976933413502908
aF1.2396337604914969
a(lp1016
S'0212I3'
p1017
aasS'0212I3'
p1018
(lp1019
F1.2958030441478623
aF1.2075078731850515
a(lp1020
S'0212I4'
p1021
aasS'0212I0'
p1022
(lp1023
F1.609375
aF1.265625
a(lp1024
S'0212I1'
p1025
aasS'0212I1'
p1026
(lp1027
F1.5027393245204961
aF1.2591028826861568
a(lp1028
S'0212I2'
p1029
aasS'0212I6'
p1030
(lp1031
F1.0238857194359992
aF1.04087672229272
a(lp1032
S'0212I7'
p1033
aasS'0210TR'
p1034
(lp1035
F0.75
aF0.25
a(lp1036
S'0209BR'
p1037
aasS'1603I9'
p1038
(lp1039
F1.1702557086648218
aF1.2121333127278964
a(lp1040
S'1704BL'
p1041
aasS'1603I8'
p1042
(lp1043
F1.1160328759856615
aF1.1200812094630965
a(lp1044
S'1603I9'
p1045
aasS'1603I7'
p1046
(lp1047
F1.0509958826949255
aF1.0353233496333061
a(lp1048
S'1603I8'
p1049
aasS'1603I6'
p1050
(lp1051
F0.97611428056400062
aF0.95912327770727979
a(lp1052
S'1603I7'
p1053
aasS'1603I5'
p1054
(lp1055
F0.8925043818071654
aF0.89261696124713219
a(lp1056
S'1603I6'
p1057
aasS'1603I4'
p1058
(lp1059
F0.80141261743765413
aF0.83679585624843877
a(lp1060
S'1603I5'
p1061
aasS'1603I3'
p1062
(lp1063
F0.70419695585213782
aF0.79249212681494852
a(lp1064
S'1603I4'
p1065
aasS'1603I2'
p1066
(lp1067
F0.602306658649709
aF0.76036623950850302
a(lp1068
S'1603I3'
p1069
aasS'1603I1'
p1070
(lp1071
F0.49726067547950425
aF0.74089711731384322
a(lp1072
S'1603I2'
p1073
aasS'1603I0'
p1074
(lp1075
F0.39062499999999983
aF0.734375
a(lp1076
S'1603I1'
p1077
aasS'1902TR'
p1078
(lp1079
F0.75
aF0.25
a(lp1080
S'1901BR'
p1081
aasS'1706TR'
p1082
(lp1083
F0.75
aF0.25
a(lp1084
S'1705BR'
p1085
aasS'0210BR'
p1086
(lp1087
F0.75
aF0.75
a(lp1088
S'0210TR'
p1089
aasS'0015TR'
p1090
(lp1091
F0.75
aF0.25
a(lp1092
S'0014BR'
p1093
aS'0015CC'
p1094
aasS'1712TR'
p1095
(lp1096
F0.75
aF0.25
a(lp1097
S'1711BR'
p1098
aasS'0414I1'
p1099
(lp1100
F1.2591028826861568
aF0.49726067547950403
a(lp1101
S'0414I2'
p1102
aasS'0815BR'
p1103
(lp1104
F0.75
aF0.75
a(lp1105
S'0915BL'
p1106
aasS'1914BR'
p1107
(lp1108
F0.75
aF0.75
a(lp1109
S'1914TR'
p1110
aasS'1914BL'
p1111
(lp1112
F0.25
aF0.75
a(lp1113
S'1915TL'
p1114
aasS'0815BL'
p1115
(lp1116
F0.25
aF0.75
a(lp1117
S'0815BR'
p1118
aasS'0519BR'
p1119
(lp1120
F0.75
aF0.75
a(lp1121
S'0619BL'
p1122
aasS'1404I8'
p1123
(lp1124
F0.87991879053690347
aF1.1160328759856615
a(lp1125
S'1404I9'
p1126
aasS'1404I9'
p1127
(lp1128
F0.78786668727210352
aF1.1702557086648218
a(lp1129
S'1405TL'
p1130
aasS'1404I6'
p1131
(lp1132
F1.04087672229272
aF0.97611428056400096
a(lp1133
S'1404I7'
p1134
aasS'1404I7'
p1135
(lp1136
F0.96467665036669392
aF1.0509958826949255
a(lp1137
S'1404I8'
p1138
aasS'1404I4'
p1139
(lp1140
F1.1632041437515612
aF0.80141261743765446
a(lp1141
S'1404I5'
p1142
aasS'1404I5'
p1143
(lp1144
F1.1073830387528678
aF0.89250438180716529
a(lp1145
S'1404I6'
p1146
aasS'1404I2'
p1147
(lp1148
F1.2396337604914969
aF0.60230665864970923
a(lp1149
S'1404I3'
p1150
aasS'1404I3'
p1151
(lp1152
F1.2075078731850515
aF0.70419695585213771
a(lp1153
S'1404I4'
p1154
aasS'1902TL'
p1155
(lp1156
F0.25
aF0.25
a(lp1157
S'1902BL'
p1158
aasS'1404I1'
p1159
(lp1160
F1.2591028826861568
aF0.49726067547950403
a(lp1161
S'1404I2'
p1162
aasS'0513BL'
p1163
(lp1164
F0.25
aF0.75
a(lp1165
S'0513BR'
p1166
aS'0514TL'
p1167
aS'0513CC'
p1168
aasS'0011TR'
p1169
(lp1170
F0.75
aF0.25
a(lp1171
S'0010BR'
p1172
aasS'1305TL'
p1173
(lp1174
F0.25
aF0.25
a(lp1175
S'1205TR'
p1176
aS'1305BL'
p1177
aS'1305CC'
p1178
aasS'0716TL'
p1179
(lp1180
F0.25
aF0.25
a(lp1181
S'0716BL'
p1182
aasS'0512TL'
p1183
(lp1184
F0.25
aF0.25
a(lp1185
S'0512BL'
p1186
aasS'1003BR'
p1187
(lp1188
F0.75
aF0.75
a(lp1189
S'1103BL'
p1190
aasS'1503TL'
p1191
(lp1192
F0.25
aF0.25
a(lp1193
S'1403TR'
p1194
aS'1503BL'
p1195
aS'1503CC'
p1196
aasS'0903TL'
p1197
(lp1198
F0.25
aF0.25
a(lp1199
S'0803TR'
p1200
aasS'0511BR'
p1201
(lp1202
F0.75
aF0.75
a(lp1203
S'0511TR'
p1204
aasS'0903TR'
p1205
(lp1206
F0.75
aF0.25
a(lp1207
S'0903TL'
p1208
aasS'1003BL'
p1209
(lp1210
F0.25
aF0.75
a(lp1211
S'1003BR'
p1212
aasS'1503TR'
p1213
(lp1214
F0.75
aF0.25
a(lp1215
S'1503TL'
p1216
aS'1502BR'
p1217
aS'1503CC'
p1218
aasS'0716TR'
p1219
(lp1220
F0.75
aF0.25
a(lp1221
S'0715BR'
p1222
aasS'0414I9'
p1223
(lp1224
F0.78786668727210352
aF1.1702557086648218
a(lp1225
S'0415TL'
p1226
aasS'0011TL'
p1227
(lp1228
F0.25
aF0.25
a(lp1229
S'0011BL'
p1230
aasS'0513BR'
p1231
(lp1232
F0.75
aF0.75
a(lp1233
S'0613BL'
p1234
aS'0513TR'
p1235
aS'0513CC'
p1236
aasS'1913BL'
p1237
(lp1238
F0.25
aF0.75
a(lp1239
S'1914TL'
p1240
aasS'1819TL'
p1241
(lp1242
F0.25
aF0.25
a(lp1243
S'1719TR'
p1244
aasS'0508BL'
p1245
(lp1246
F0.25
aF0.75
a(lp1247
S'0508BR'
p1248
aS'0509TL'
p1249
aasS'1800I6'
p1250
(lp1251
F0.97611428056400062
aF0.95912327770727979
a(lp1252
S'1800I7'
p1253
aasS'1800I7'
p1254
(lp1255
F1.0509958826949255
aF1.0353233496333061
a(lp1256
S'1800I8'
p1257
aasS'1800I4'
p1258
(lp1259
F0.80141261743765413
aF0.83679585624843877
a(lp1260
S'1800I5'
p1261
aasS'1800I5'
p1262
(lp1263
F0.8925043818071654
aF0.89261696124713219
a(lp1264
S'1800I6'
p1265
aasS'1800I2'
p1266
(lp1267
F0.602306658649709
aF0.76036623950850302
a(lp1268
S'1800I3'
p1269
aasS'1800I3'
p1270
(lp1271
F0.70419695585213782
aF0.79249212681494852
a(lp1272
S'1800I4'
p1273
aasS'1800I0'
p1274
(lp1275
F0.39062499999999983
aF0.734375
a(lp1276
S'1800I1'
p1277
aasS'1800I1'
p1278
(lp1279
F0.49726067547950425
aF0.74089711731384322
a(lp1280
S'1800I2'
p1281
aasS'1218I8'
p1282
(lp1283
F0.88396712401433852
aF0.87991879053690347
a(lp1284
S'1218I9'
p1285
aasS'1708TR'
p1286
(lp1287
F0.75
aF0.25
a(lp1288
S'1707BR'
p1289
aasS'1800I8'
p1290
(lp1291
F1.1160328759856615
aF1.1200812094630965
a(lp1292
S'1800I9'
p1293
aasS'1800I9'
p1294
(lp1295
F1.1702557086648218
aF1.2121333127278964
a(lp1296
S'1901BL'
p1297
aasS'0608BL'
p1298
(lp1299
F0.25
aF0.75
a(lp1300
S'0607O0'
p1301
aasS'0313TR'
p1302
(lp1303
F0.25
aF0.75
a(lp1304
S'0212I0'
p1305
aasS'0419BL'
p1306
(lp1307
F0.25
aF0.75
a(lp1308
S'0419BR'
p1309
aasS'1104O1'
p1310
(lp1311
F0.31463114453877816
aF1.0503299449340291
a(lp1312
S'1104O2'
p1313
aasS'1104O0'
p1314
(lp1315
F0.24388416042047689
aF0.88762302077011257
a(lp1316
S'1104O1'
p1317
aasS'1104O3'
p1318
(lp1319
F0.51268764123878463
aF1.3439607765018309
a(lp1320
S'1104O4'
p1321
aasS'1104O2'
p1322
(lp1323
F0.40467977738095517
aF1.2032021878559291
a(lp1324
S'1104O3'
p1325
aasS'1104O5'
p1326
(lp1327
F0.77589674092738592
aF1.5809553143574411
a(lp1328
S'1104O6'
p1329
aasS'1104O4'
p1330
(lp1331
F0.63704458763478411
aF1.4705073245218385
a(lp1332
S'1104O5'
p1333
aasS'1104O7'
p1334
(lp1335
F1.0886215733169855
aF1.7472340572537464
a(lp1336
S'1104O8'
p1337
aasS'1104O6'
p1338
(lp1339
F0.9271741353267523
aF1.6736582208731281
a(lp1340
S'1104O7'
p1341
aasS'1104O9'
p1342
(lp1343
F1.4322836103643952
aF1.8329186266037962
a(lp1344
S'1104TR'
p1345
aasS'1104O8'
p1346
(lp1347
F1.2578322454567328
aF1.8005859772448074
a(lp1348
S'1104O9'
p1349
aasS'1115I7'
p1350
(lp1351
F1.0509958826949255
aF1.0353233496333061
a(lp1352
S'1115I8'
p1353
aasS'1115I6'
p1354
(lp1355
F0.97611428056400062
aF0.95912327770727979
a(lp1356
S'1115I7'
p1357
aasS'1412BR'
p1358
(lp1359
F0.75
aF0.75
a(lp1360
S'1512BL'
p1361
aasS'1115I0'
p1362
(lp1363
F0.39062499999999983
aF0.734375
a(lp1364
S'1115I1'
p1365
aasS'1115I3'
p1366
(lp1367
F0.70419695585213782
aF0.79249212681494852
a(lp1368
S'1115I4'
p1369
aasS'1115I2'
p1370
(lp1371
F0.602306658649709
aF0.76036623950850302
a(lp1372
S'1115I3'
p1373
aasS'0011BL'
p1374
(lp1375
F0.25
aF0.75
a(lp1376
S'0012TL'
p1377
aasS'1307TL'
p1378
(lp1379
F0.25
aF0.25
a(lp1380
S'1307BL'
p1381
aasS'0017TL'
p1382
(lp1383
F0.25
aF0.25
a(lp1384
S'0017BL'
p1385
aasS'0716BL'
p1386
(lp1387
F0.25
aF0.75
a(lp1388
S'0717TL'
p1389
aasS'1912TR'
p1390
(lp1391
F0.75
aF0.25
a(lp1392
S'1911BR'
p1393
aasS'0716BR'
p1394
(lp1395
F0.75
aF0.75
a(lp1396
S'0716TR'
p1397
aasS'1912TL'
p1398
(lp1399
F0.25
aF0.25
a(lp1400
S'1912BL'
p1401
aasS'0414O7'
p1402
(lp1403
F1.7472340572537464
aF0.9113784266830145
a(lp1404
S'0414O8'
p1405
aasS'1307TR'
p1406
(lp1407
F0.75
aF0.25
a(lp1408
S'1306BR'
p1409
aasS'0011BR'
p1410
(lp1411
F0.75
aF0.75
a(lp1412
S'0011TR'
p1413
aasS'1115BR'
p1414
(lp1415
F0.25
aF0.25
a(lp1416
S'1015TR'
p1417
aasS'0519TR'
p1418
(lp1419
F0.75
aF0.25
a(lp1420
S'0519TL'
p1421
aasS'0403TL'
p1422
(lp1423
F0.25
aF0.25
a(lp1424
S'0303TR'
p1425
aasS'0915TR'
p1426
(lp1427
F0.75
aF0.25
a(lp1428
S'0915TL'
p1429
aasS'0915TL'
p1430
(lp1431
F0.25
aF0.25
a(lp1432
S'0815TR'
p1433
aasS'0403TR'
p1434
(lp1435
F0.75
aF0.25
a(lp1436
S'0403TL'
p1437
aasS'0519TL'
p1438
(lp1439
F0.25
aF0.25
a(lp1440
S'0419TR'
p1441
aasS'0400BL'
p1442
(lp1443
F0.25
aF0.75
a(lp1444
S'0400BR'
p1445
aasS'0414I5'
p1446
(lp1447
F1.1073830387528678
aF0.89250438180716529
a(lp1448
S'0414I6'
p1449
aasS'0804BR'
p1450
(lp1451
F0.75
aF0.75
a(lp1452
S'0904BL'
p1453
aasS'0500CC'
p1454
(lp1455
F0.5
aF0.5
a(lp1456
S'0500TL'
p1457
aS'0500BL'
p1458
aS'0500BR'
p1459
aasS'0211TR'
p1460
(lp1461
F0.75
aF0.25
a(lp1462
S'0210BR'
p1463
aasS'0414O9'
p1464
(lp1465
F1.832918626603796
aF0.567716389635605
a(lp1466
g1226
aasS'1011I0'
p1467
(lp1468
F1.609375
aF1.265625
a(lp1469
S'1011I1'
p1470
aasS'1011I1'
p1471
(lp1472
F1.5027393245204961
aF1.2591028826861568
a(lp1473
S'1011I2'
p1474
aasS'0211TL'
p1475
(lp1476
F0.25
aF0.25
a(lp1477
S'0211BL'
p1478
aasS'1011I3'
p1479
(lp1480
F1.2958030441478623
aF1.2075078731850515
a(lp1481
S'1011I4'
p1482
aasS'1011I4'
p1483
(lp1484
F1.1985873825623454
aF1.163204143751561
a(lp1485
S'1011I5'
p1486
aasS'0503TR'
p1487
(lp1488
F0.75
aF0.25
a(lp1489
S'0503TL'
p1490
aS'0502BR'
p1491
aasS'1011I6'
p1492
(lp1493
F1.0238857194359992
aF1.04087672229272
a(lp1494
S'1011I7'
p1495
aasS'1011I7'
p1496
(lp1497
F0.94900411730507461
aF0.96467665036669392
a(lp1498
S'1011I8'
p1499
aasS'1011I8'
p1500
(lp1501
F0.88396712401433852
aF0.87991879053690347
a(lp1502
S'1011I9'
p1503
aasS'1011I9'
p1504
(lp1505
F0.82974429133517824
aF0.78786668727210363
a(lp1506
S'1011TR'
p1507
aasS'0400BR'
p1508
(lp1509
F0.75
aF0.75
a(lp1510
S'0500BL'
p1511
aasS'0503TL'
p1512
(lp1513
F0.25
aF0.25
a(lp1514
S'0403TR'
p1515
aS'0503CC'
p1516
aasS'1005BL'
p1517
(lp1518
F0.25
aF0.75
a(lp1519
S'1006TL'
p1520
aasS'0000I9'
p1521
(lp1522
F1.2121333127278964
aF0.82974429133517824
a(lp1523
g182
aasS'0000I8'
p1524
(lp1525
F1.1200812094630967
aF0.88396712401433841
a(lp1526
S'0000I9'
p1527
aasS'1706BL'
p1528
(lp1529
F0.25
aF0.75
a(lp1530
S'1707TL'
p1531
aasS'1103BR'
p1532
(lp1533
F0.75
aF0.75
a(lp1534
S'1203BL'
p1535
aS'1103TR'
p1536
aS'1103CC'
p1537
aasS'0000I5'
p1538
(lp1539
F0.89261696124713219
aF1.1074956181928346
a(lp1540
S'0000I6'
p1541
aasS'0000I4'
p1542
(lp1543
F0.836795856248439
aF1.1985873825623454
a(lp1544
S'0000I5'
p1545
aasS'0000I7'
p1546
(lp1547
F1.0353233496333061
aF0.94900411730507461
a(lp1548
S'0000I8'
p1549
aasS'0000I6'
p1550
(lp1551
F0.95912327770728001
aF1.0238857194359992
a(lp1552
S'0000I7'
p1553
aasS'0000I1'
p1554
(lp1555
F0.74089711731384322
aF1.5027393245204961
a(lp1556
S'0000I2'
p1557
aasS'0000I0'
p1558
(lp1559
F0.734375
aF1.609375
a(lp1560
S'0000I1'
p1561
aasS'0000I3'
p1562
(lp1563
F0.79249212681494852
aF1.2958030441478621
a(lp1564
S'0000I4'
p1565
aasS'0000I2'
p1566
(lp1567
F0.76036623950850313
aF1.397693341350291
a(lp1568
S'0000I3'
p1569
aasS'0203I8'
p1570
(lp1571
F1.1200812094630967
aF0.88396712401433841
a(lp1572
S'0203I9'
p1573
aasS'0203I9'
p1574
(lp1575
F1.2121333127278964
aF0.82974429133517824
a(lp1576
S'0303BR'
p1577
aasS'0203I0'
p1578
(lp1579
F0.734375
aF1.609375
a(lp1580
S'0203I1'
p1581
aasS'0203I1'
p1582
(lp1583
F0.74089711731384322
aF1.5027393245204961
a(lp1584
S'0203I2'
p1585
aasS'0203I2'
p1586
(lp1587
F0.76036623950850313
aF1.397693341350291
a(lp1588
S'0203I3'
p1589
aasS'0203I3'
p1590
(lp1591
F0.79249212681494852
aF1.2958030441478621
a(lp1592
S'0203I4'
p1593
aasS'0203I4'
p1594
(lp1595
F0.836795856248439
aF1.1985873825623454
a(lp1596
S'0203I5'
p1597
aasS'0203I5'
p1598
(lp1599
F0.89261696124713219
aF1.1074956181928346
a(lp1600
S'0203I6'
p1601
aasS'0203I6'
p1602
(lp1603
F0.95912327770728001
aF1.0238857194359992
a(lp1604
S'0203I7'
p1605
aasS'0203I7'
p1606
(lp1607
F1.0353233496333061
aF0.94900411730507461
a(lp1608
S'0203I8'
p1609
aasS'1717BL'
p1610
(lp1611
F0.25
aF0.75
a(lp1612
S'1718TL'
p1613
aasS'1800BL'
p1614
(lp1615
F0.75
aF0.75
a(lp1616
S'1800I0'
p1617
aasS'1504TL'
p1618
(lp1619
F0.25
aF0.25
a(lp1620
S'1404I0'
p1621
aasS'0007BL'
p1622
(lp1623
F0.25
aF0.75
a(lp1624
S'0008TL'
p1625
aasS'0007BR'
p1626
(lp1627
F0.75
aF0.75
a(lp1628
S'0007TR'
p1629
aasS'1504TR'
p1630
(lp1631
F0.75
aF0.25
a(lp1632
S'1503BR'
p1633
aasS'1310TR'
p1634
(lp1635
F0.75
aF0.25
a(lp1636
S'1309BR'
p1637
aasS'1800BR'
p1638
(lp1639
F0.25
aF0.25
a(lp1640
S'1700TR'
p1641
aasS'0119BR'
p1642
(lp1643
F0.75
aF0.75
a(lp1644
S'0219BL'
p1645
aasS'0219BR'
p1646
(lp1647
F0.75
aF0.75
a(lp1648
S'0319BL'
p1649
aasS'1916TR'
p1650
(lp1651
F0.75
aF0.25
a(lp1652
S'1915BR'
p1653
aasS'1512TL'
p1654
(lp1655
F0.25
aF0.25
a(lp1656
S'1412TR'
p1657
aasS'0613O7'
p1658
(lp1659
F0.91137842668301461
aF0.25276594274625364
a(lp1660
S'0613O8'
p1661
aasS'1717BR'
p1662
(lp1663
F0.75
aF0.75
a(lp1664
S'1717TR'
p1665
aasS'1500I7'
p1666
(lp1667
F1.0353233496333061
aF0.94900411730507461
a(lp1668
S'1500I8'
p1669
aasS'1500I6'
p1670
(lp1671
F0.95912327770728001
aF1.0238857194359992
a(lp1672
S'1500I7'
p1673
aasS'1500I5'
p1674
(lp1675
F0.89261696124713219
aF1.1074956181928346
a(lp1676
S'1500I6'
p1677
aasS'1500I4'
p1678
(lp1679
F0.836795856248439
aF1.1985873825623454
a(lp1680
S'1500I5'
p1681
aasS'1500I3'
p1682
(lp1683
F0.79249212681494852
aF1.2958030441478621
a(lp1684
S'1500I4'
p1685
aasS'1500I2'
p1686
(lp1687
F0.76036623950850313
aF1.397693341350291
a(lp1688
S'1500I3'
p1689
aasS'1500I1'
p1690
(lp1691
F0.74089711731384322
aF1.5027393245204961
a(lp1692
S'1500I2'
p1693
aasS'1500I0'
p1694
(lp1695
F0.734375
aF1.609375
a(lp1696
S'1500I1'
p1697
aasS'1512TR'
p1698
(lp1699
F0.75
aF0.25
a(lp1700
S'1512TL'
p1701
aasS'0619BL'
p1702
(lp1703
F0.25
aF0.75
a(lp1704
S'0618O0'
p1705
aasS'1500I9'
p1706
(lp1707
F1.2121333127278964
aF0.82974429133517824
a(lp1708
S'1600BR'
p1709
aasS'1500I8'
p1710
(lp1711
F1.1200812094630967
aF0.88396712401433841
a(lp1712
S'1500I9'
p1713
aasS'1217BR'
p1714
(lp1715
F0.75
aF0.75
a(lp1716
S'1217TR'
p1717
aasS'1503BR'
p1718
(lp1719
F0.75
aF0.75
a(lp1720
S'1603BL'
p1721
aS'1503TR'
p1722
aS'1503CC'
p1723
aasS'0903BR'
p1724
(lp1725
F0.75
aF0.75
a(lp1726
S'1003BL'
p1727
aasS'0718TR'
p1728
(lp1729
F0.75
aF0.25
a(lp1730
S'0717BR'
p1731
aasS'1216BL'
p1732
(lp1733
F0.25
aF0.75
a(lp1734
S'1217TL'
p1735
aasS'1512BR'
p1736
(lp1737
F0.75
aF0.75
a(lp1738
S'1612BL'
p1739
aasS'1719TR'
p1740
(lp1741
F0.75
aF0.25
a(lp1742
S'1719TL'
p1743
aS'1718BR'
p1744
aasS'1719TL'
p1745
(lp1746
F0.25
aF0.25
a(lp1747
S'1619TR'
p1748
aS'1719CC'
p1749
aasS'1216BR'
p1750
(lp1751
F0.75
aF0.75
a(lp1752
S'1115O0'
p1753
aasS'1512BL'
p1754
(lp1755
F0.25
aF0.75
a(lp1756
S'1512BR'
p1757
aasS'0903BL'
p1758
(lp1759
F0.25
aF0.75
a(lp1760
S'0903BR'
p1761
aasS'1503BL'
p1762
(lp1763
F0.25
aF0.75
a(lp1764
S'1503BR'
p1765
aS'1504TL'
p1766
aS'1503CC'
p1767
aasS'1003TR'
p1768
(lp1769
F0.75
aF0.25
a(lp1770
S'1003TL'
p1771
aasS'1904TL'
p1772
(lp1773
F0.25
aF0.25
a(lp1774
S'1904BL'
p1775
aasS'0006BR'
p1776
(lp1777
F0.75
aF0.75
a(lp1778
S'0006TR'
p1779
aasS'1205BR'
p1780
(lp1781
F0.75
aF0.75
a(lp1782
S'1305BL'
p1783
aasS'1218O8'
p1784
(lp1785
F1.2578322454567328
aF1.8005859772448074
a(lp1786
S'1218O9'
p1787
aasS'0706TR'
p1788
(lp1789
F0.75
aF0.25
a(lp1790
S'0705BR'
p1791
aasS'0718TL'
p1792
(lp1793
F0.25
aF0.25
a(lp1794
S'0618I0'
p1795
aasS'1716TL'
p1796
(lp1797
F0.25
aF0.25
a(lp1798
S'1716BL'
p1799
aasS'1716TR'
p1800
(lp1801
F0.75
aF0.25
a(lp1802
S'1715BR'
p1803
aasS'0015CC'
p1804
(lp1805
F0.5
aF0.5
a(lp1806
S'0015TR'
p1807
aS'0015BL'
p1808
aS'0015BR'
p1809
aasS'0706TL'
p1810
(lp1811
F0.25
aF0.25
a(lp1812
S'0706BL'
p1813
aasS'1011I2'
p1814
(lp1815
F1.3976933413502908
aF1.2396337604914969
a(lp1816
S'1011I3'
p1817
aasS'0006BL'
p1818
(lp1819
F0.25
aF0.75
a(lp1820
S'0007TL'
p1821
aasS'0915BR'
p1822
(lp1823
F0.75
aF0.75
a(lp1824
S'1015BL'
p1825
aasS'1003TL'
p1826
(lp1827
F0.25
aF0.25
a(lp1828
S'0903TR'
p1829
aasS'1519TR'
p1830
(lp1831
F0.75
aF0.25
a(lp1832
S'1519TL'
p1833
aasS'0619TL'
p1834
(lp1835
F0.25
aF0.25
a(lp1836
S'0519TR'
p1837
aasS'0513TL'
p1838
(lp1839
F0.25
aF0.25
a(lp1840
S'0413TR'
p1841
aS'0513BL'
p1842
aS'0513CC'
p1843
aasS'0012BL'
p1844
(lp1845
F0.25
aF0.75
a(lp1846
S'0013TL'
p1847
aasS'1911TL'
p1848
(lp1849
F0.25
aF0.25
a(lp1850
S'1911BL'
p1851
aasS'0503BR'
p1852
(lp1853
F0.75
aF0.75
a(lp1854
S'0503TR'
p1855
aS'0503CC'
p1856
aasS'1218O9'
p1857
(lp1858
F1.4322836103643952
aF1.8329186266037962
a(lp1859
S'1218TR'
p1860
aasS'1217TL'
p1861
(lp1862
F0.25
aF0.25
a(lp1863
S'1217BL'
p1864
aasS'0503BL'
p1865
(lp1866
F0.25
aF0.75
a(lp1867
S'0503BR'
p1868
aS'0503CC'
p1869
aasS'1911TR'
p1870
(lp1871
F0.75
aF0.25
a(lp1872
S'1910BR'
p1873
aasS'0012BR'
p1874
(lp1875
F0.75
aF0.75
a(lp1876
S'0012TR'
p1877
aasS'0513TR'
p1878
(lp1879
F0.75
aF0.25
a(lp1880
S'0513TL'
p1881
aS'0512BR'
p1882
aS'0513CC'
p1883
aasS'0415TL'
p1884
(lp1885
F0.25
aF0.25
a(lp1886
S'0315TR'
p1887
aasS'0509TR'
p1888
(lp1889
F0.75
aF0.25
a(lp1890
S'0508BR'
p1891
aasS'0207TL'
p1892
(lp1893
F0.25
aF0.25
a(lp1894
S'0207BL'
p1895
aasS'1308TL'
p1896
(lp1897
F0.25
aF0.25
a(lp1898
S'1308BL'
p1899
aasS'1308TR'
p1900
(lp1901
F0.75
aF0.25
a(lp1902
S'1307BR'
p1903
aasS'0207TR'
p1904
(lp1905
F0.75
aF0.25
a(lp1906
S'0206BR'
p1907
aasS'1907BL'
p1908
(lp1909
F0.25
aF0.75
a(lp1910
S'1908TL'
p1911
aasS'0608TL'
p1912
(lp1913
F0.25
aF0.25
a(lp1914
S'0508TR'
p1915
aasS'0018I5'
p1916
(lp1917
F1.1074956181928344
aF1.1073830387528676
a(lp1918
S'0018I6'
p1919
aasS'1308BL'
p1920
(lp1921
F0.25
aF0.75
a(lp1922
S'1309TL'
p1923
aasS'0703BR'
p1924
(lp1925
F0.75
aF0.75
a(lp1926
S'0803BL'
p1927
aasS'0212I5'
p1928
(lp1929
F1.1074956181928344
aF1.1073830387528676
a(lp1930
S'0212I6'
p1931
aasS'0018I3'
p1932
(lp1933
F1.2958030441478623
aF1.2075078731850515
a(lp1934
S'0018I4'
p1935
aasS'1818O3'
p1936
(lp1937
F1.3439607765018309
aF1.4873123587612154
a(lp1938
S'1818O4'
p1939
aasS'1818O2'
p1940
(lp1941
F1.2032021878559289
aF1.595320222619045
a(lp1942
S'1818O3'
p1943
aasS'1011I5'
p1944
(lp1945
F1.1074956181928344
aF1.1073830387528676
a(lp1946
S'1011I6'
p1947
aasS'1818O0'
p1948
(lp1949
F0.88762302077011257
aF1.7561158395795231
a(lp1950
S'1818O1'
p1951
aasS'1818O7'
p1952
(lp1953
F1.7472340572537464
aF0.9113784266830145
a(lp1954
S'1818O8'
p1955
aasS'1818O6'
p1956
(lp1957
F1.6736582208731283
aF1.0728258646732476
a(lp1958
S'1818O7'
p1959
aasS'1818O5'
p1960
(lp1961
F1.5809553143574413
aF1.2241032590726137
a(lp1962
S'1818O6'
p1963
aasS'1818O4'
p1964
(lp1965
F1.4705073245218385
aF1.3629554123652159
a(lp1966
S'1818O5'
p1967
aasS'1308BR'
p1968
(lp1969
F0.75
aF0.75
a(lp1970
S'1308TR'
p1971
aasS'1818O8'
p1972
(lp1973
F1.8005859772448074
aF0.74216775454326722
a(lp1974
S'1818O9'
p1975
aasS'0212I8'
p1976
(lp1977
F0.88396712401433852
aF0.87991879053690347
a(lp1978
S'0212I9'
p1979
aasS'1412TR'
p1980
(lp1981
F0.75
aF0.25
a(lp1982
S'1412TL'
p1983
aasS'1311TR'
p1984
(lp1985
F0.75
aF0.25
a(lp1986
S'1310BR'
p1987
aasS'0508TL'
p1988
(lp1989
F0.25
aF0.25
a(lp1990
S'0408TR'
p1991
aasS'1711TR'
p1992
(lp1993
F0.75
aF0.25
a(lp1994
S'1710BR'
p1995
aasS'0700BR'
p1996
(lp1997
F0.75
aF0.75
a(lp1998
S'0800BL'
p1999
aasS'0204BL'
p2000
(lp2001
F0.25
aF0.75
a(lp2002
S'0205TL'
p2003
aasS'1519TL'
p2004
(lp2005
F0.25
aF0.25
a(lp2006
S'1419TR'
p2007
aasS'1901BR'
p2008
(lp2009
F0.75
aF0.75
a(lp2010
S'1800O0'
p2011
aasS'1710BL'
p2012
(lp2013
F0.25
aF0.75
a(lp2014
S'1711TL'
p2015
aasS'1710BR'
p2016
(lp2017
F0.75
aF0.75
a(lp2018
S'1710TR'
p2019
aasS'1619BR'
p2020
(lp2021
F0.75
aF0.75
a(lp2022
S'1719BL'
p2023
aasS'1901BL'
p2024
(lp2025
F0.25
aF0.75
a(lp2026
S'1902TL'
p2027
aasS'0204BR'
p2028
(lp2029
F0.75
aF0.75
a(lp2030
S'0203I0'
p2031
aasS'1000O1'
p2032
(lp2033
F1.6853688554612218
aF0.94967005506597069
a(lp2034
S'1000O2'
p2035
aasS'0700BL'
p2036
(lp2037
F0.25
aF0.75
a(lp2038
S'0700BR'
p2039
aasS'0714BR'
p2040
(lp2041
F0.75
aF0.75
a(lp2042
S'0613O0'
p2043
aasS'1311TL'
p2044
(lp2045
F0.25
aF0.25
a(lp2046
S'1311BL'
p2047
aasS'0014TL'
p2048
(lp2049
F0.25
aF0.25
a(lp2050
S'0014BL'
p2051
aasS'0414I8'
p2052
(lp2053
F0.87991879053690347
aF1.1160328759856615
a(lp2054
S'0414I9'
p2055
aasS'0211BR'
p2056
(lp2057
F0.75
aF0.75
a(lp2058
S'0211TR'
p2059
aasS'0211BL'
p2060
(lp2061
F0.25
aF0.75
a(lp2062
S'0212TL'
p2063
aasS'0915BL'
p2064
(lp2065
F0.25
aF0.75
a(lp2066
S'0915BR'
p2067
aasS'1218I9'
p2068
(lp2069
F0.82974429133517824
aF0.78786668727210363
a(lp2070
g1860
aasS'1011O3'
p2071
(lp2072
F0.51268764123878463
aF1.3439607765018309
a(lp2073
S'1011O4'
p2074
aasS'1218I7'
p2075
(lp2076
F0.94900411730507461
aF0.96467665036669392
a(lp2077
S'1218I8'
p2078
aasS'1218I6'
p2079
(lp2080
F1.0238857194359992
aF1.04087672229272
a(lp2081
S'1218I7'
p2082
aasS'1218I5'
p2083
(lp2084
F1.1074956181928344
aF1.1073830387528676
a(lp2085
S'1218I6'
p2086
aasS'1218I4'
p2087
(lp2088
F1.1985873825623454
aF1.163204143751561
a(lp2089
S'1218I5'
p2090
aasS'1218I3'
p2091
(lp2092
F1.2958030441478623
aF1.2075078731850515
a(lp2093
S'1218I4'
p2094
aasS'1218I2'
p2095
(lp2096
F1.3976933413502908
aF1.2396337604914969
a(lp2097
S'1218I3'
p2098
aasS'1218I1'
p2099
(lp2100
F1.5027393245204961
aF1.2591028826861568
a(lp2101
S'1218I2'
p2102
aasS'1218I0'
p2103
(lp2104
F1.609375
aF1.265625
a(lp2105
S'1218I1'
p2106
aasS'1011TR'
p2107
(lp2108
F0.25
aF0.75
a(lp2109
S'1010BR'
p2110
aasS'0500TR'
p2111
(lp2112
F0.75
aF0.25
a(lp2113
S'0500TL'
p2114
aS'0500CC'
p2115
aasS'1011O7'
p2116
(lp2117
F1.0886215733169855
aF1.7472340572537464
a(lp2118
S'1011O8'
p2119
aasS'0500TL'
p2120
(lp2121
F0.25
aF0.25
a(lp2122
S'0400TR'
p2123
aasS'1011O4'
p2124
(lp2125
F0.63704458763478411
aF1.4705073245218385
a(lp2126
S'1011O5'
p2127
aasS'1011TL'
p2128
(lp2129
F0.25
aF0.25
a(lp2130
S'1011O0'
p2131
aasS'1906BL'
p2132
(lp2133
F0.25
aF0.75
a(lp2134
S'1907TL'
p2135
aasS'0509BL'
p2136
(lp2137
F0.25
aF0.75
a(lp2138
S'0510TL'
p2139
aasS'1103TR'
p2140
(lp2141
F0.75
aF0.25
a(lp2142
S'1103TL'
p2143
aS'1102BR'
p2144
aS'1103CC'
p2145
aasS'1304TL'
p2146
(lp2147
F0.25
aF0.25
a(lp2148
S'1304BL'
p2149
aasS'0519BL'
p2150
(lp2151
F0.25
aF0.75
a(lp2152
S'0519BR'
p2153
aasS'0308BR'
p2154
(lp2155
F0.75
aF0.75
a(lp2156
S'0408BL'
p2157
aasS'1311BL'
p2158
(lp2159
F0.25
aF0.75
a(lp2160
S'1312TL'
p2161
aasS'1501BR'
p2162
(lp2163
F0.75
aF0.75
a(lp2164
S'1500I0'
p2165
aasS'1717TR'
p2166
(lp2167
F0.75
aF0.25
a(lp2168
S'1716BR'
p2169
aasS'1914TR'
p2170
(lp2171
F0.75
aF0.25
a(lp2172
S'1913BR'
p2173
aasS'0618O0'
p2174
(lp2175
F0.88762302077011257
aF1.7561158395795231
a(lp2176
S'0618O1'
p2177
aasS'0815TR'
p2178
(lp2179
F0.75
aF0.25
a(lp2180
S'0815TL'
p2181
aasS'0815TL'
p2182
(lp2183
F0.25
aF0.25
a(lp2184
S'0715TR'
p2185
aasS'0618O1'
p2186
(lp2187
F1.0503299449340289
aF1.6853688554612218
a(lp2188
S'0618O2'
p2189
aasS'1717TL'
p2190
(lp2191
F0.25
aF0.25
a(lp2192
S'1717BL'
p2193
aasS'1914TL'
p2194
(lp2195
F0.25
aF0.25
a(lp2196
S'1914BL'
p2197
aasS'1311BR'
p2198
(lp2199
F0.75
aF0.75
a(lp2200
S'1311TR'
p2201
aasS'0618O6'
p2202
(lp2203
F1.6736582208731283
aF1.0728258646732476
a(lp2204
S'0618O7'
p2205
aasS'0613I9'
p2206
(lp2207
F1.1702557086648218
aF1.2121333127278964
a(lp2208
S'0714BL'
p2209
aasS'1303CC'
p2210
(lp2211
F0.5
aF0.5
a(lp2212
S'1303TL'
p2213
aS'1303BL'
p2214
aS'1303BR'
p2215
aasS'1304TR'
p2216
(lp2217
F0.75
aF0.25
a(lp2218
S'1303BR'
p2219
aasS'0509BR'
p2220
(lp2221
F0.75
aF0.75
a(lp2222
S'0509TR'
p2223
aasS'1103TL'
p2224
(lp2225
F0.25
aF0.25
a(lp2226
S'1003TR'
p2227
aS'1103BL'
p2228
aS'1103CC'
p2229
aasS'0707TR'
p2230
(lp2231
F0.75
aF0.25
a(lp2232
S'0706BR'
p2233
aasS'0618O4'
p2234
(lp2235
F1.4705073245218385
aF1.3629554123652159
a(lp2236
S'0618O5'
p2237
aasS'0415BL'
p2238
(lp2239
F0.25
aF0.75
a(lp2240
S'0414O0'
p2241
aasS'1403TL'
p2242
(lp2243
F0.25
aF0.25
a(lp2244
S'1303TR'
p2245
aasS'1310BL'
p2246
(lp2247
F0.25
aF0.75
a(lp2248
S'1311TL'
p2249
aasS'1403TR'
p2250
(lp2251
F0.75
aF0.25
a(lp2252
S'1403TL'
p2253
aasS'1310BR'
p2254
(lp2255
F0.75
aF0.75
a(lp2256
S'1310TR'
p2257
aasS'0618O8'
p2258
(lp2259
F1.8005859772448074
aF0.74216775454326722
a(lp2260
S'0618O9'
p2261
aasS'0707TL'
p2262
(lp2263
F0.25
aF0.25
a(lp2264
S'0607I0'
p2265
aasS'0212I9'
p2266
(lp2267
F0.82974429133517824
aF0.78786668727210363
a(lp2268
g64
aasS'0203O9'
p2269
(lp2270
F0.16708137339620377
aF1.4322836103643952
a(lp2271
g1577
aasS'0500BL'
p2272
(lp2273
F0.25
aF0.75
a(lp2274
S'0500BR'
p2275
aS'0501TL'
p2276
aasS'0018TR'
p2277
(lp2278
F0.25
aF0.75
a(lp2279
S'0017BR'
p2280
aasS'0200TL'
p2281
(lp2282
F0.25
aF0.25
a(lp2283
S'0100TR'
p2284
aasS'1709TR'
p2285
(lp2286
F0.75
aF0.25
a(lp2287
S'1708BR'
p2288
aasS'0015TL'
p2289
(lp2290
F0.25
aF0.25
a(lp2291
S'0015BL'
p2292
aS'0015CC'
p2293
aasS'0200TR'
p2294
(lp2295
F0.75
aF0.25
a(lp2296
S'0200TL'
p2297
aasS'0018TL'
p2298
(lp2299
F0.25
aF0.25
a(lp2300
S'0018O0'
p2301
aasS'0209TL'
p2302
(lp2303
F0.25
aF0.25
a(lp2304
S'0209BL'
p2305
aasS'0419BR'
p2306
(lp2307
F0.75
aF0.75
a(lp2308
S'0519BL'
p2309
aasS'0500BR'
p2310
(lp2311
F0.75
aF0.75
a(lp2312
S'0600BL'
p2313
aS'0500CC'
p2314
aasS'1310TL'
p2315
(lp2316
F0.25
aF0.25
a(lp2317
S'1310BL'
p2318
aasS'0607O2'
p2319
(lp2320
F1.2032021878559289
aF1.595320222619045
a(lp2321
S'0607O3'
p2322
aasS'0607O3'
p2323
(lp2324
F1.3439607765018309
aF1.4873123587612154
a(lp2325
S'0607O4'
p2326
aasS'0607O0'
p2327
(lp2328
F0.88762302077011257
aF1.7561158395795231
a(lp2329
S'0607O1'
p2330
aasS'0607O1'
p2331
(lp2332
F1.0503299449340289
aF1.6853688554612218
a(lp2333
S'0607O2'
p2334
aasS'0607O6'
p2335
(lp2336
F1.6736582208731283
aF1.0728258646732476
a(lp2337
S'0607O7'
p2338
aasS'0607O7'
p2339
(lp2340
F1.7472340572537464
aF0.9113784266830145
a(lp2341
S'0607O8'
p2342
aasS'0607O4'
p2343
(lp2344
F1.4705073245218385
aF1.3629554123652159
a(lp2345
S'0607O5'
p2346
aasS'0607O5'
p2347
(lp2348
F1.5809553143574413
aF1.2241032590726137
a(lp2349
S'0607O6'
p2350
aasS'1706TL'
p2351
(lp2352
F0.25
aF0.25
a(lp2353
S'1706BL'
p2354
aasS'0607O8'
p2355
(lp2356
F1.8005859772448074
aF0.74216775454326722
a(lp2357
S'0607O9'
p2358
aasS'0607O9'
p2359
(lp2360
F1.832918626603796
aF0.567716389635605
a(lp2361
g90
aasS'0210BL'
p2362
(lp2363
F0.25
aF0.75
a(lp2364
S'0211TL'
p2365
aasS'0308BL'
p2366
(lp2367
F0.25
aF0.75
a(lp2368
S'0308BR'
p2369
aasS'0018I9'
p2370
(lp2371
F0.82974429133517824
aF0.78786668727210363
a(lp2372
S'0018TR'
p2373
aasS'1709TL'
p2374
(lp2375
F0.25
aF0.25
a(lp2376
S'1709BL'
p2377
aasS'1404I0'
p2378
(lp2379
F1.265625
aF0.390625
a(lp2380
S'1404I1'
p2381
aasS'1711TL'
p2382
(lp2383
F0.25
aF0.25
a(lp2384
S'1711BL'
p2385
aasS'0207BR'
p2386
(lp2387
F0.75
aF0.75
a(lp2388
S'0207TR'
p2389
aasS'0006TR'
p2390
(lp2391
F0.75
aF0.25
a(lp2392
S'0005BR'
p2393
aasS'1912BR'
p2394
(lp2395
F0.75
aF0.75
a(lp2396
S'1912TR'
p2397
aasS'1000BR'
p2398
(lp2399
F0.25
aF0.25
a(lp2400
S'0900TR'
p2401
aasS'1307BL'
p2402
(lp2403
F0.25
aF0.75
a(lp2404
S'1308TL'
p2405
aasS'1307BR'
p2406
(lp2407
F0.75
aF0.75
a(lp2408
S'1307TR'
p2409
aasS'1000BL'
p2410
(lp2411
F0.75
aF0.75
a(lp2412
S'1000I0'
p2413
aasS'1619BL'
p2414
(lp2415
F0.25
aF0.75
a(lp2416
S'1619BR'
p2417
aasS'1912BL'
p2418
(lp2419
F0.25
aF0.75
a(lp2420
S'1913TL'
p2421
aasS'0006TL'
p2422
(lp2423
F0.25
aF0.25
a(lp2424
S'0006BL'
p2425
aasS'1115O8'
p2426
(lp2427
F0.74216775454326678
aF0.19941402275519238
a(lp2428
S'1115O9'
p2429
aasS'0207BL'
p2430
(lp2431
F0.25
aF0.75
a(lp2432
S'0208TL'
p2433
aasS'0002TR'
p2434
(lp2435
F0.75
aF0.25
a(lp2436
S'0001BR'
p2437
aasS'1712TL'
p2438
(lp2439
F0.25
aF0.25
a(lp2440
S'1612TR'
p2441
aS'1712BL'
p2442
aasS'1619TL'
p2443
(lp2444
F0.25
aF0.25
a(lp2445
S'1519TR'
p2446
aasS'1619TR'
p2447
(lp2448
F0.75
aF0.25
a(lp2449
S'1619TL'
p2450
aasS'0008TL'
p2451
(lp2452
F0.25
aF0.25
a(lp2453
S'0008BL'
p2454
aasS'0403BL'
p2455
(lp2456
F0.25
aF0.75
a(lp2457
S'0403BR'
p2458
aasS'0403BR'
p2459
(lp2460
F0.75
aF0.75
a(lp2461
S'0503BL'
p2462
aasS'1904TR'
p2463
(lp2464
F0.75
aF0.25
a(lp2465
S'1903BR'
p2466
aasS'1419BL'
p2467
(lp2468
F0.25
aF0.75
a(lp2469
S'1419BR'
p2470
aasS'0002TL'
p2471
(lp2472
F0.25
aF0.25
a(lp2473
S'0002BL'
p2474
aasS'0212O8'
p2475
(lp2476
F1.2578322454567328
aF1.8005859772448074
a(lp2477
S'0212O9'
p2478
aasS'0009BL'
p2479
(lp2480
F0.25
aF0.75
a(lp2481
S'0010TL'
p2482
aasS'0613O3'
p2483
(lp2484
F1.4873123587612154
aF0.6560392234981689
a(lp2485
S'0613O4'
p2486
aasS'0613BL'
p2487
(lp2488
F0.75
aF0.75
a(lp2489
S'0613I0'
p2490
aasS'0212O0'
p2491
(lp2492
F0.24388416042047689
aF0.88762302077011257
a(lp2493
S'0212O1'
p2494
aasS'0212O1'
p2495
(lp2496
F0.31463114453877816
aF1.0503299449340291
a(lp2497
S'0212O2'
p2498
aasS'0212O2'
p2499
(lp2500
F0.40467977738095517
aF1.2032021878559291
a(lp2501
S'0212O3'
p2502
aasS'0212O3'
p2503
(lp2504
F0.51268764123878463
aF1.3439607765018309
a(lp2505
S'0212O4'
p2506
aasS'0212O4'
p2507
(lp2508
F0.63704458763478411
aF1.4705073245218385
a(lp2509
S'0212O5'
p2510
aasS'0212O5'
p2511
(lp2512
F0.77589674092738592
aF1.5809553143574411
a(lp2513
S'0212O6'
p2514
aasS'0212O6'
p2515
(lp2516
F0.9271741353267523
aF1.6736582208731281
a(lp2517
S'0212O7'
p2518
aasS'0212O7'
p2519
(lp2520
F1.0886215733169855
aF1.7472340572537464
a(lp2521
S'0212O8'
p2522
aasS'0009BR'
p2523
(lp2524
F0.75
aF0.75
a(lp2525
S'0009TR'
p2526
aasS'1304BL'
p2527
(lp2528
F0.25
aF0.75
a(lp2529
S'1305TL'
p2530
aasS'1700TL'
p2531
(lp2532
F0.25
aF0.25
a(lp2533
S'1600TR'
p2534
aasS'1112BR'
p2535
(lp2536
F0.75
aF0.75
a(lp2537
S'1212BL'
p2538
aasS'1715BL'
p2539
(lp2540
F0.25
aF0.75
a(lp2541
S'1716TL'
p2542
aasS'0200BR'
p2543
(lp2544
F0.75
aF0.75
a(lp2545
S'0300BL'
p2546
aasS'0613O9'
p2547
(lp2548
F0.56771638963560522
aF0.16708137339620399
a(lp2549
g2209
aasS'1705TL'
p2550
(lp2551
F0.25
aF0.25
a(lp2552
S'1705BL'
p2553
aasS'1705TR'
p2554
(lp2555
F0.75
aF0.25
a(lp2556
S'1704BR'
p2557
aasS'0010TL'
p2558
(lp2559
F0.25
aF0.25
a(lp2560
S'0010BL'
p2561
aasS'0018O8'
p2562
(lp2563
F1.2578322454567328
aF1.8005859772448074
a(lp2564
S'0018O9'
p2565
aasS'0018O9'
p2566
(lp2567
F1.4322836103643952
aF1.8329186266037962
a(lp2568
g2373
aasS'0200BL'
p2569
(lp2570
F0.25
aF0.75
a(lp2571
S'0200BR'
p2572
aasS'0715TL'
p2573
(lp2574
F0.25
aF0.25
a(lp2575
S'0715BL'
p2576
aS'0715CC'
p2577
aasS'1715BR'
p2578
(lp2579
F0.75
aF0.75
a(lp2580
S'1715TR'
p2581
aasS'0018O5'
p2582
(lp2583
F0.77589674092738592
aF1.5809553143574411
a(lp2584
S'0018O6'
p2585
aasS'0018O6'
p2586
(lp2587
F0.9271741353267523
aF1.6736582208731281
a(lp2588
S'0018O7'
p2589
aasS'0018O7'
p2590
(lp2591
F1.0886215733169855
aF1.7472340572537464
a(lp2592
S'0018O8'
p2593
aasS'1700TR'
p2594
(lp2595
F0.75
aF0.25
a(lp2596
S'1700TL'
p2597
aasS'0018O1'
p2598
(lp2599
F0.31463114453877816
aF1.0503299449340291
a(lp2600
S'0018O2'
p2601
aasS'1304BR'
p2602
(lp2603
F0.75
aF0.75
a(lp2604
S'1304TR'
p2605
aasS'0018O3'
p2606
(lp2607
F0.51268764123878463
aF1.3439607765018309
a(lp2608
S'0018O4'
p2609
aasS'1718TL'
p2610
(lp2611
F0.25
aF0.25
a(lp2612
S'1718BL'
p2613
aasS'1715TR'
p2614
(lp2615
F0.75
aF0.25
a(lp2616
S'1714BR'
p2617
aasS'1707BL'
p2618
(lp2619
F0.25
aF0.75
a(lp2620
S'1708TL'
p2621
aasS'1000O8'
p2622
(lp2623
F0.74216775454326678
aF0.19941402275519238
a(lp2624
S'1000O9'
p2625
aasS'1000O9'
p2626
(lp2627
F0.56771638963560522
aF0.16708137339620399
a(lp2628
S'1101BL'
p2629
aasS'0002BL'
p2630
(lp2631
F0.25
aF0.75
a(lp2632
S'0003TL'
p2633
aasS'0212TR'
p2634
(lp2635
F0.25
aF0.75
a(lp2636
S'0211BR'
p2637
aasS'1000O4'
p2638
(lp2639
F1.3629554123652154
aF0.52949267547816103
a(lp2640
S'1000O5'
p2641
aasS'1000O5'
p2642
(lp2643
F1.224103259072614
aF0.4190446856425587
a(lp2644
S'1000O6'
p2645
aasS'1000O6'
p2646
(lp2647
F1.0728258646732471
aF0.32634177912687146
a(lp2648
S'1000O7'
p2649
aasS'1000O7'
p2650
(lp2651
F0.91137842668301461
aF0.25276594274625364
a(lp2652
S'1000O8'
p2653
aasS'1000O0'
p2654
(lp2655
F1.7561158395795231
aF1.1123769792298879
a(lp2656
S'1000O1'
p2657
aasS'1102BR'
p2658
(lp2659
F0.75
aF0.75
a(lp2660
S'1102TR'
p2661
aasS'1000O2'
p2662
(lp2663
F1.5953202226190453
aF0.79679781214407119
a(lp2664
S'1000O3'
p2665
aasS'1000O3'
p2666
(lp2667
F1.4873123587612154
aF0.6560392234981689
a(lp2668
S'1000O4'
p2669
aasS'0904I4'
p2670
(lp2671
F0.80141261743765413
aF0.83679585624843877
a(lp2672
S'0904I5'
p2673
aasS'0904I5'
p2674
(lp2675
F0.8925043818071654
aF0.89261696124713219
a(lp2676
S'0904I6'
p2677
aasS'1603BL'
p2678
(lp2679
F0.75
aF0.75
a(lp2680
S'1603I0'
p2681
aasS'0904I7'
p2682
(lp2683
F1.0509958826949255
aF1.0353233496333061
a(lp2684
S'0904I8'
p2685
aasS'0904I0'
p2686
(lp2687
F0.39062499999999983
aF0.734375
a(lp2688
S'0904I1'
p2689
aasS'0904I1'
p2690
(lp2691
F0.49726067547950425
aF0.74089711731384322
a(lp2692
S'0904I2'
p2693
aasS'0904I2'
p2694
(lp2695
F0.602306658649709
aF0.76036623950850302
a(lp2696
S'0904I3'
p2697
aasS'0904I3'
p2698
(lp2699
F0.70419695585213782
aF0.79249212681494852
a(lp2700
S'0904I4'
p2701
aasS'1102TR'
p2702
(lp2703
F0.75
aF0.25
a(lp2704
S'1101BR'
p2705
aasS'0212TL'
p2706
(lp2707
F0.25
aF0.25
a(lp2708
S'0212O0'
p2709
aasS'0904I8'
p2710
(lp2711
F1.1160328759856615
aF1.1200812094630965
a(lp2712
S'0904I9'
p2713
aasS'0904I9'
p2714
(lp2715
F1.1702557086648218
aF1.2121333127278964
a(lp2716
S'1005BL'
p2717
aasS'1718TR'
p2718
(lp2719
F0.75
aF0.25
a(lp2720
S'1717BR'
p2721
aasS'0514TL'
p2722
(lp2723
F0.25
aF0.25
a(lp2724
S'0414I0'
p2725
aasS'0904BR'
p2726
(lp2727
F0.25
aF0.25
a(lp2728
S'0804TR'
p2729
aasS'0319BR'
p2730
(lp2731
F0.75
aF0.75
a(lp2732
S'0419BL'
p2733
aasS'1115BL'
p2734
(lp2735
F0.75
aF0.75
a(lp2736
S'1115I0'
p2737
aasS'0003BL'
p2738
(lp2739
F0.25
aF0.75
a(lp2740
S'0004TL'
p2741
aasS'0618I0'
p2742
(lp2743
F1.265625
aF0.390625
a(lp2744
S'0618I1'
p2745
aasS'0618I2'
p2746
(lp2747
F1.2396337604914969
aF0.60230665864970923
a(lp2748
S'0618I3'
p2749
aasS'0219BL'
p2750
(lp2751
F0.25
aF0.75
a(lp2752
S'0219BR'
p2753
aasS'0717BL'
p2754
(lp2755
F0.25
aF0.75
a(lp2756
S'0718TL'
p2757
aasS'0003BR'
p2758
(lp2759
F0.75
aF0.75
a(lp2760
S'0003TR'
p2761
aasS'0319BL'
p2762
(lp2763
F0.25
aF0.75
a(lp2764
S'0319BR'
p2765
aasS'0904BL'
p2766
(lp2767
F0.75
aF0.75
a(lp2768
S'0904I0'
p2769
aasS'0003TR'
p2770
(lp2771
F0.75
aF0.25
a(lp2772
S'0002BR'
p2773
aasS'1519BR'
p2774
(lp2775
F0.75
aF0.75
a(lp2776
S'1619BL'
p2777
aasS'1312CC'
p2778
(lp2779
F0.5
aF0.5
a(lp2780
S'1312TL'
p2781
aS'1312TR'
p2782
aS'1312BL'
p2783
aS'1312BR'
p2784
aasS'0618O2'
p2785
(lp2786
F1.2032021878559289
aF1.595320222619045
a(lp2787
S'0618O3'
p2788
aasS'0618I1'
p2789
(lp2790
F1.2591028826861568
aF0.49726067547950403
a(lp2791
S'0618I2'
p2792
aasS'1008TL'
p2793
(lp2794
F0.25
aF0.25
a(lp2795
S'1008BL'
p2796
aasS'1217TR'
p2797
(lp2798
F0.75
aF0.25
a(lp2799
S'1216BR'
p2800
aasS'0613I7'
p2801
(lp2802
F1.0509958826949255
aF1.0353233496333061
a(lp2803
S'0613I8'
p2804
aasS'1218O1'
p2805
(lp2806
F0.31463114453877816
aF1.0503299449340291
a(lp2807
S'1218O2'
p2808
aasS'0003TL'
p2809
(lp2810
F0.25
aF0.25
a(lp2811
S'0003BL'
p2812
aasS'0613I6'
p2813
(lp2814
F0.97611428056400062
aF0.95912327770727979
a(lp2815
S'0613I7'
p2816
aasS'1006TL'
p2817
(lp2818
F0.25
aF0.25
a(lp2819
S'1006BL'
p2820
aasS'0800BL'
p2821
(lp2822
F0.25
aF0.75
a(lp2823
S'0800BR'
p2824
aasS'1909BR'
p2825
(lp2826
F0.75
aF0.75
a(lp2827
S'1909TR'
p2828
aasS'1403BL'
p2829
(lp2830
F0.25
aF0.75
a(lp2831
S'1403BR'
p2832
aasS'1212TR'
p2833
(lp2834
F0.75
aF0.25
a(lp2835
S'1212TL'
p2836
aasS'0600BL'
p2837
(lp2838
F0.25
aF0.75
a(lp2839
S'0600BR'
p2840
aasS'0600BR'
p2841
(lp2842
F0.75
aF0.75
a(lp2843
S'0700BL'
p2844
aasS'1519BL'
p2845
(lp2846
F0.25
aF0.75
a(lp2847
S'1519BR'
p2848
aasS'1403BR'
p2849
(lp2850
F0.75
aF0.75
a(lp2851
S'1503BL'
p2852
aasS'0714BL'
p2853
(lp2854
F0.25
aF0.75
a(lp2855
S'0715TL'
p2856
aasS'0800BR'
p2857
(lp2858
F0.75
aF0.75
a(lp2859
S'0900BL'
p2860
aasS'1909BL'
p2861
(lp2862
F0.25
aF0.75
a(lp2863
S'1910TL'
p2864
aasS'1006TR'
p2865
(lp2866
F0.75
aF0.25
a(lp2867
S'1005BR'
p2868
aasS'0414O4'
p2869
(lp2870
F1.4705073245218385
aF1.3629554123652159
a(lp2871
S'0414O5'
p2872
aasS'0414O5'
p2873
(lp2874
F1.5809553143574413
aF1.2241032590726137
a(lp2875
S'0414O6'
p2876
aasS'0414O6'
p2877
(lp2878
F1.6736582208731283
aF1.0728258646732476
a(lp2879
S'0414O7'
p2880
aasS'0613I8'
p2881
(lp2882
F1.1160328759856615
aF1.1200812094630965
a(lp2883
S'0613I9'
p2884
aasS'0414O0'
p2885
(lp2886
F0.88762302077011257
aF1.7561158395795231
a(lp2887
S'0414O1'
p2888
aasS'0414O1'
p2889
(lp2890
F1.0503299449340289
aF1.6853688554612218
a(lp2891
S'0414O2'
p2892
aasS'0414O2'
p2893
(lp2894
F1.2032021878559289
aF1.595320222619045
a(lp2895
S'0414O3'
p2896
aasS'0414O3'
p2897
(lp2898
F1.3439607765018309
aF1.4873123587612154
a(lp2899
S'0414O4'
p2900
aasS'1911BL'
p2901
(lp2902
F0.25
aF0.75
a(lp2903
S'1912TL'
p2904
aasS'1915TL'
p2905
(lp2906
F0.25
aF0.25
a(lp2907
S'1915BL'
p2908
aasS'1714BL'
p2909
(lp2910
F0.25
aF0.75
a(lp2911
S'1715TL'
p2912
aasS'0414O8'
p2913
(lp2914
F1.8005859772448074
aF0.74216775454326722
a(lp2915
S'0414O9'
p2916
aasS'0313BR'
p2917
(lp2918
F0.75
aF0.75
a(lp2919
S'0413BL'
p2920
aasS'0705BL'
p2921
(lp2922
F0.25
aF0.75
a(lp2923
S'0706TL'
p2924
aasS'0012TL'
p2925
(lp2926
F0.25
aF0.25
a(lp2927
S'0012BL'
p2928
aasS'0705BR'
p2929
(lp2930
F0.75
aF0.75
a(lp2931
S'0704I0'
p2932
aasS'0012TR'
p2933
(lp2934
F0.75
aF0.25
a(lp2935
S'0011BR'
p2936
aasS'1212BR'
p2937
(lp2938
F0.75
aF0.75
a(lp2939
S'1312BL'
p2940
aasS'1911BR'
p2941
(lp2942
F0.75
aF0.75
a(lp2943
S'1911TR'
p2944
aasS'1818I4'
p2945
(lp2946
F1.1632041437515612
aF0.80141261743765446
a(lp2947
S'1818I5'
p2948
aasS'0014BL'
p2949
(lp2950
F0.25
aF0.75
a(lp2951
S'0015TL'
p2952
aasS'0017TR'
p2953
(lp2954
F0.75
aF0.25
a(lp2955
S'0016BR'
p2956
aasS'0618O3'
p2957
(lp2958
F1.3439607765018309
aF1.4873123587612154
a(lp2959
S'0618O4'
p2960
aasS'0618I4'
p2961
(lp2962
F1.1632041437515612
aF0.80141261743765446
a(lp2963
S'0618I5'
p2964
aasS'1102BL'
p2965
(lp2966
F0.25
aF0.75
a(lp2967
S'1103TL'
p2968
aasS'1907BR'
p2969
(lp2970
F0.75
aF0.75
a(lp2971
S'1907TR'
p2972
aasS'1104I7'
p2973
(lp2974
F0.94900411730507461
aF0.96467665036669392
a(lp2975
S'1104I8'
p2976
aasS'1104I6'
p2977
(lp2978
F1.0238857194359992
aF1.04087672229272
a(lp2979
S'1104I7'
p2980
aasS'1104I5'
p2981
(lp2982
F1.1074956181928344
aF1.1073830387528676
a(lp2983
S'1104I6'
p2984
aasS'1104I4'
p2985
(lp2986
F1.1985873825623454
aF1.163204143751561
a(lp2987
S'1104I5'
p2988
aasS'1104I3'
p2989
(lp2990
F1.2958030441478623
aF1.2075078731850515
a(lp2991
S'1104I4'
p2992
aasS'1104I2'
p2993
(lp2994
F1.3976933413502908
aF1.2396337604914969
a(lp2995
S'1104I3'
p2996
aasS'1104I1'
p2997
(lp2998
F1.5027393245204961
aF1.2591028826861568
a(lp2999
S'1104I2'
p3000
aasS'1104I0'
p3001
(lp3002
F1.609375
aF1.265625
a(lp3003
S'1104I1'
p3004
aasS'0613O2'
p3005
(lp3006
F1.5953202226190453
aF0.79679781214407119
a(lp3007
S'0613O3'
p3008
aasS'1104I9'
p3009
(lp3010
F0.82974429133517824
aF0.78786668727210363
a(lp3011
g1345
aasS'1104I8'
p3012
(lp3013
F0.88396712401433852
aF0.87991879053690347
a(lp3014
S'1104I9'
p3015
aasS'1112TR'
p3016
(lp3017
F0.25
aF0.75
a(lp3018
S'1011I0'
p3019
aasS'1203TR'
p3020
(lp3021
F0.75
aF0.25
a(lp3022
S'1203TL'
p3023
aasS'1502TR'
p3024
(lp3025
F0.75
aF0.25
a(lp3026
S'1501BR'
p3027
aasS'1909TL'
p3028
(lp3029
F0.25
aF0.25
a(lp3030
S'1909BL'
p3031
aasS'0800TL'
p3032
(lp3033
F0.25
aF0.25
a(lp3034
S'0700TR'
p3035
aasS'0800TR'
p3036
(lp3037
F0.75
aF0.25
a(lp3038
S'0800TL'
p3039
aasS'1502TL'
p3040
(lp3041
F0.25
aF0.25
a(lp3042
S'1502BL'
p3043
aasS'1909TR'
p3044
(lp3045
F0.75
aF0.25
a(lp3046
S'1908BR'
p3047
aasS'1203TL'
p3048
(lp3049
F0.25
aF0.25
a(lp3050
S'1103TR'
p3051
aasS'0512BR'
p3052
(lp3053
F0.75
aF0.75
a(lp3054
S'0512TR'
p3055
aasS'0618I6'
p3056
(lp3057
F1.04087672229272
aF0.97611428056400096
a(lp3058
S'0618I7'
p3059
aasS'1714BR'
p3060
(lp3061
F0.75
aF0.75
a(lp3062
S'1714TR'
p3063
aasS'1718BL'
p3064
(lp3065
F0.25
aF0.75
a(lp3066
S'1719TL'
p3067
aasS'1303BL'
p3068
(lp3069
F0.25
aF0.75
a(lp3070
S'1303BR'
p3071
aS'1304TL'
p3072
aasS'1916BR'
p3073
(lp3074
F0.75
aF0.75
a(lp3075
S'1916TR'
p3076
aasS'1916BL'
p3077
(lp3078
F0.25
aF0.75
a(lp3079
S'1917TL'
p3080
aasS'1303BR'
p3081
(lp3082
F0.75
aF0.75
a(lp3083
S'1403BL'
p3084
aS'1303CC'
p3085
aasS'0703TR'
p3086
(lp3087
F0.75
aF0.25
a(lp3088
S'0703TL'
p3089
aasS'0010BR'
p3090
(lp3091
F0.75
aF0.75
a(lp3092
S'0010TR'
p3093
aasS'0613I3'
p3094
(lp3095
F0.70419695585213782
aF0.79249212681494852
a(lp3096
S'0613I4'
p3097
aasS'0613I2'
p3098
(lp3099
F0.602306658649709
aF0.76036623950850302
a(lp3100
S'0613I3'
p3101
aasS'0613I1'
p3102
(lp3103
F0.49726067547950425
aF0.74089711731384322
a(lp3104
S'0613I2'
p3105
aasS'0613I0'
p3106
(lp3107
F0.39062499999999983
aF0.734375
a(lp3108
S'0613I1'
p3109
aasS'0704O8'
p3110
(lp3111
F0.1994140227551926
aF1.2578322454567332
a(lp3112
S'0704O9'
p3113
aasS'0704O9'
p3114
(lp3115
F0.16708137339620377
aF1.4322836103643952
a(lp3116
g472
aasS'0613I5'
p3117
(lp3118
F0.8925043818071654
aF0.89261696124713219
a(lp3119
S'0613I6'
p3120
aasS'0613I4'
p3121
(lp3122
F0.80141261743765413
aF0.83679585624843877
a(lp3123
S'0613I5'
p3124
aasS'0704O4'
p3125
(lp3126
F0.52949267547816148
aF0.63704458763478411
a(lp3127
S'0704O5'
p3128
aasS'0704O5'
p3129
(lp3130
F0.4190446856425587
aF0.77589674092738603
a(lp3131
S'0704O6'
p3132
aasS'0704O6'
p3133
(lp3134
F0.3263417791268719
aF0.9271741353267523
a(lp3135
S'0704O7'
p3136
aasS'0704O7'
p3137
(lp3138
F0.25276594274625364
aF1.0886215733169853
a(lp3139
S'0704O8'
p3140
aasS'0704O0'
p3141
(lp3142
F1.1123769792298879
aF0.24388416042047689
a(lp3143
S'0704O1'
p3144
aasS'0704O1'
p3145
(lp3146
F0.9496700550659708
aF0.31463114453877816
a(lp3147
S'0704O2'
p3148
aasS'0704O2'
p3149
(lp3150
F0.79679781214407142
aF0.40467977738095473
a(lp3151
S'0704O3'
p3152
aasS'0704O3'
p3153
(lp3154
F0.6560392234981689
aF0.51268764123878463
a(lp3155
S'0704O4'
p3156
aasS'0014BR'
p3157
(lp3158
F0.75
aF0.75
a(lp3159
S'0014TR'
p3160
aasS'1818I6'
p3161
(lp3162
F1.04087672229272
aF0.97611428056400096
a(lp3163
S'1818I7'
p3164
aasS'1906TR'
p3165
(lp3166
F0.75
aF0.25
a(lp3167
S'1905BR'
p3168
aasS'1309TR'
p3169
(lp3170
F0.75
aF0.25
a(lp3171
S'1308BR'
p3172
aasS'0503CC'
p3173
(lp3174
F0.5
aF0.5
a(lp3175
S'0503TL'
p3176
aS'0503TR'
p3177
aS'0503BL'
p3178
aS'0503BR'
p3179
aasS'1818I5'
p3180
(lp3181
F1.1073830387528678
aF0.89250438180716529
a(lp3182
S'1818I6'
p3183
aasS'1305CC'
p3184
(lp3185
F0.5
aF0.5
a(lp3186
S'1305TL'
p3187
aS'1305TR'
p3188
aS'1305BL'
p3189
aS'1305BR'
p3190
aasS'0215BR'
p3191
(lp3192
F0.75
aF0.75
a(lp3193
S'0315BL'
p3194
aasS'1714TR'
p3195
(lp3196
F0.75
aF0.25
a(lp3197
S'1713BR'
p3198
aasS'1818I1'
p3199
(lp3200
F1.2591028826861568
aF0.49726067547950403
a(lp3201
S'1818I2'
p3202
aasS'1818I0'
p3203
(lp3204
F1.265625
aF0.390625
a(lp3205
S'1818I1'
p3206
aasS'1818I3'
p3207
(lp3208
F1.2075078731850515
aF0.70419695585213771
a(lp3209
S'1818I4'
p3210
aasS'1818I2'
p3211
(lp3212
F1.2396337604914969
aF0.60230665864970923
a(lp3213
S'1818I3'
p3214
aasS'1818I9'
p3215
(lp3216
F0.78786668727210352
aF1.1702557086648218
a(lp3217
g318
aasS'1818I8'
p3218
(lp3219
F0.87991879053690347
aF1.1160328759856615
a(lp3220
S'1818I9'
p3221
aasS'1603O9'
p3222
(lp3223
F0.56771638963560522
aF0.16708137339620399
a(lp3224
g1041
aasS'1603O8'
p3225
(lp3226
F0.74216775454326678
aF0.19941402275519238
a(lp3227
S'1603O9'
p3228
aasS'1603O1'
p3229
(lp3230
F1.6853688554612218
aF0.94967005506597069
a(lp3231
S'1603O2'
p3232
aasS'1603O0'
p3233
(lp3234
F1.7561158395795231
aF1.1123769792298879
a(lp3235
S'1603O1'
p3236
aasS'1603O3'
p3237
(lp3238
F1.4873123587612154
aF0.6560392234981689
a(lp3239
S'1603O4'
p3240
aasS'1603O2'
p3241
(lp3242
F1.5953202226190453
aF0.79679781214407119
a(lp3243
S'1603O3'
p3244
aasS'1603O5'
p3245
(lp3246
F1.224103259072614
aF0.4190446856425587
a(lp3247
S'1603O6'
p3248
aasS'1603O4'
p3249
(lp3250
F1.3629554123652154
aF0.52949267547816103
a(lp3251
S'1603O5'
p3252
aasS'1603O7'
p3253
(lp3254
F0.91137842668301461
aF0.25276594274625364
a(lp3255
S'1603O8'
p3256
aasS'1603O6'
p3257
(lp3258
F1.0728258646732471
aF0.32634177912687146
a(lp3259
S'1603O7'
p3260
aasS'1700BL'
p3261
(lp3262
F0.25
aF0.75
a(lp3263
S'1700BR'
p3264
aasS'1412TL'
p3265
(lp3266
F0.25
aF0.25
a(lp3267
S'1312TR'
p3268
aasS'1101BR'
p3269
(lp3270
F0.75
aF0.75
a(lp3271
S'1000O0'
p3272
aasS'1800O5'
p3273
(lp3274
F1.224103259072614
aF0.4190446856425587
a(lp3275
S'1800O6'
p3276
aasS'0209BR'
p3277
(lp3278
F0.75
aF0.75
a(lp3279
S'0209TR'
p3280
aasS'0419TR'
p3281
(lp3282
F0.75
aF0.25
a(lp3283
S'0419TL'
p3284
aasS'0419TL'
p3285
(lp3286
F0.25
aF0.25
a(lp3287
S'0319TR'
p3288
aasS'0209BL'
p3289
(lp3290
F0.25
aF0.75
a(lp3291
S'0210TL'
p3292
aasS'1711BR'
p3293
(lp3294
F0.75
aF0.75
a(lp3295
S'1711TR'
p3296
aasS'1101BL'
p3297
(lp3298
F0.25
aF0.75
a(lp3299
S'1102TL'
p3300
aasS'1700BR'
p3301
(lp3302
F0.75
aF0.75
a(lp3303
S'1800BL'
p3304
aasS'0100BR'
p3305
(lp3306
F0.75
aF0.75
a(lp3307
S'0200BL'
p3308
aasS'0017BL'
p3309
(lp3310
F0.25
aF0.75
a(lp3311
S'0018TL'
p3312
aasS'0413TL'
p3313
(lp3314
F0.25
aF0.25
a(lp3315
S'0313TR'
p3316
aasS'0315TL'
p3317
(lp3318
F0.25
aF0.25
a(lp3319
S'0215TR'
p3320
aasS'0408TR'
p3321
(lp3322
F0.75
aF0.25
a(lp3323
S'0408TL'
p3324
aasS'1718BR'
p3325
(lp3326
F0.75
aF0.75
a(lp3327
S'1718TR'
p3328
aasS'1007TL'
p3329
(lp3330
F0.25
aF0.25
a(lp3331
S'1007BL'
p3332
aasS'1007TR'
p3333
(lp3334
F0.75
aF0.25
a(lp3335
S'1006BR'
p3336
aasS'1115I9'
p3337
(lp3338
F1.1702557086648218
aF1.2121333127278964
a(lp3339
S'1216BL'
p3340
aasS'0408TL'
p3341
(lp3342
F0.25
aF0.25
a(lp3343
S'0308TR'
p3344
aasS'0413TR'
p3345
(lp3346
F0.75
aF0.25
a(lp3347
S'0413TL'
p3348
aasS'0315TR'
p3349
(lp3350
F0.75
aF0.25
a(lp3351
S'0315TL'
p3352
aasS'0017BR'
p3353
(lp3354
F0.75
aF0.75
a(lp3355
S'0017TR'
p3356
aasS'1115I8'
p3357
(lp3358
F1.1160328759856615
aF1.1200812094630965
a(lp3359
S'1115I9'
p3360
aasS'1309BL'
p3361
(lp3362
F0.25
aF0.75
a(lp3363
S'1310TL'
p3364
aasS'0803BL'
p3365
(lp3366
F0.25
aF0.75
a(lp3367
S'0803BR'
p3368
aasS'0007TR'
p3369
(lp3370
F0.75
aF0.25
a(lp3371
S'0006BR'
p3372
aasS'1009TL'
p3373
(lp3374
F0.25
aF0.25
a(lp3375
S'1009BL'
p3376
aasS'1006BR'
p3377
(lp3378
F0.75
aF0.75
a(lp3379
S'1006TR'
p3380
aasS'1712BL'
p3381
(lp3382
F0.25
aF0.75
a(lp3383
S'1713TL'
p3384
aS'1712CC'
p3385
aasS'1115I5'
p3386
(lp3387
F0.8925043818071654
aF0.89261696124713219
a(lp3388
S'1115I6'
p3389
aasS'1006BL'
p3390
(lp3391
F0.25
aF0.75
a(lp3392
S'1007TL'
p3393
aasS'1115I4'
p3394
(lp3395
F0.80141261743765413
aF0.83679585624843877
a(lp3396
S'1115I5'
p3397
aasS'0215TR'
p3398
(lp3399
F0.75
aF0.25
a(lp3400
S'0215TL'
p3401
aasS'0208TL'
p3402
(lp3403
F0.25
aF0.25
a(lp3404
S'0208BL'
p3405
aS'0208CC'
p3406
aasS'0803BR'
p3407
(lp3408
F0.75
aF0.75
a(lp3409
S'0903BL'
p3410
aasS'1309BR'
p3411
(lp3412
F0.75
aF0.75
a(lp3413
S'1309TR'
p3414
aasS'0618I7'
p3415
(lp3416
F0.96467665036669392
aF1.0509958826949255
a(lp3417
S'0618I8'
p3418
aasS'0009TL'
p3419
(lp3420
F0.25
aF0.25
a(lp3421
S'0009BL'
p3422
aasS'1104TL'
p3423
(lp3424
F0.25
aF0.25
a(lp3425
S'1104O0'
p3426
aasS'0215BL'
p3427
(lp3428
F0.25
aF0.75
a(lp3429
S'0215BR'
p3430
aasS'1818O1'
p3431
(lp3432
F1.0503299449340289
aF1.6853688554612218
a(lp3433
S'1818O2'
p3434
aasS'1714TL'
p3435
(lp3436
F0.25
aF0.25
a(lp3437
S'1714BL'
p3438
aasS'1104TR'
p3439
(lp3440
F0.25
aF0.75
a(lp3441
S'1103BR'
p3442
aasS'0715TR'
p3443
(lp3444
F0.75
aF0.25
a(lp3445
S'0714BR'
p3446
aS'0715CC'
p3447
aasS'0009TR'
p3448
(lp3449
F0.75
aF0.25
a(lp3450
S'0008BR'
p3451
aasS'1212TL'
p3452
(lp3453
F0.25
aF0.25
a(lp3454
S'1112TR'
p3455
aasS'0008BL'
p3456
(lp3457
F0.25
aF0.75
a(lp3458
S'0009TL'
p3459
aasS'0205TR'
p3460
(lp3461
F0.75
aF0.25
a(lp3462
S'0204BR'
p3463
aasS'1915BR'
p3464
(lp3465
F0.75
aF0.75
a(lp3466
S'1915TR'
p3467
aasS'0618O9'
p3468
(lp3469
F1.832918626603796
aF0.567716389635605
a(lp3470
g878
aasS'1915BL'
p3471
(lp3472
F0.25
aF0.75
a(lp3473
S'1916TL'
p3474
aasS'0205TL'
p3475
(lp3476
F0.25
aF0.25
a(lp3477
S'0205BL'
p3478
aasS'0008BR'
p3479
(lp3480
F0.75
aF0.75
a(lp3481
S'0008TR'
p3482
aasS'1711BL'
p3483
(lp3484
F0.25
aF0.75
a(lp3485
S'1712TL'
p3486
aasS'0005TR'
p3487
(lp3488
F0.75
aF0.25
a(lp3489
S'0004BR'
p3490
aasS'1709BR'
p3491
(lp3492
F0.75
aF0.75
a(lp3493
S'1709TR'
p3494
aasS'1306BR'
p3495
(lp3496
F0.75
aF0.75
a(lp3497
S'1306TR'
p3498
aasS'1913BR'
p3499
(lp3500
F0.75
aF0.75
a(lp3501
S'1913TR'
p3502
aasS'0206TR'
p3503
(lp3504
F0.75
aF0.25
a(lp3505
S'0205BR'
p3506
aasS'1719CC'
p3507
(lp3508
F0.5
aF0.5
a(lp3509
S'1719TL'
p3510
aS'1719TR'
p3511
aS'1719BL'
p3512
aS'1719BR'
p3513
aasS'1306BL'
p3514
(lp3515
F0.25
aF0.75
a(lp3516
S'1307TL'
p3517
aasS'1000I1'
p3518
(lp3519
F0.49726067547950425
aF0.74089711731384322
a(lp3520
S'1000I2'
p3521
aasS'1818I7'
p3522
(lp3523
F0.96467665036669392
aF1.0509958826949255
a(lp3524
S'1818I8'
p3525
aasS'1203BR'
p3526
(lp3527
F0.75
aF0.75
a(lp3528
S'1303BL'
p3529
aasS'1303TR'
p3530
(lp3531
F0.75
aF0.25
a(lp3532
S'1303TL'
p3533
aS'1303CC'
p3534
aasS'0018I8'
p3535
(lp3536
F0.88396712401433852
aF0.87991879053690347
a(lp3537
S'0018I9'
p3538
aasS'0900BR'
p3539
(lp3540
F0.75
aF0.75
a(lp3541
S'1000BL'
p3542
aasS'0018I6'
p3543
(lp3544
F1.0238857194359992
aF1.04087672229272
a(lp3545
S'0018I7'
p3546
aasS'0018I7'
p3547
(lp3548
F0.94900411730507461
aF0.96467665036669392
a(lp3549
S'0018I8'
p3550
aasS'0018I4'
p3551
(lp3552
F1.1985873825623454
aF1.163204143751561
a(lp3553
S'0018I5'
p3554
aasS'1716BR'
p3555
(lp3556
F0.75
aF0.75
a(lp3557
S'1716TR'
p3558
aasS'0018I2'
p3559
(lp3560
F1.3976933413502908
aF1.2396337604914969
a(lp3561
S'0018I3'
p3562
aasS'1115O9'
p3563
(lp3564
F0.56771638963560522
aF0.16708137339620399
a(lp3565
g3340
aasS'0018I0'
p3566
(lp3567
F1.609375
aF1.265625
a(lp3568
S'0018I1'
p3569
aasS'0018I1'
p3570
(lp3571
F1.5027393245204961
aF1.2591028826861568
a(lp3572
S'0018I2'
p3573
aasS'0018O4'
p3574
(lp3575
F0.63704458763478411
aF1.4705073245218385
a(lp3576
S'0018O5'
p3577
aasS'1011O8'
p3578
(lp3579
F1.2578322454567328
aF1.8005859772448074
a(lp3580
S'1011O9'
p3581
aasS'1011O9'
p3582
(lp3583
F1.4322836103643952
aF1.8329186266037962
a(lp3584
g1507
aasS'1412BL'
p3585
(lp3586
F0.25
aF0.75
a(lp3587
S'1412BR'
p3588
aasS'1011O2'
p3589
(lp3590
F0.40467977738095517
aF1.2032021878559291
a(lp3591
S'1011O3'
p3592
aasS'0900BL'
p3593
(lp3594
F0.25
aF0.75
a(lp3595
S'0900BR'
p3596
aasS'1011O0'
p3597
(lp3598
F0.24388416042047689
aF0.88762302077011257
a(lp3599
S'1011O1'
p3600
aasS'1011O1'
p3601
(lp3602
F0.31463114453877816
aF1.0503299449340291
a(lp3603
S'1011O2'
p3604
aasS'1011O6'
p3605
(lp3606
F0.9271741353267523
aF1.6736582208731281
a(lp3607
S'1011O7'
p3608
aasS'1303TL'
p3609
(lp3610
F0.25
aF0.25
a(lp3611
S'1203TR'
p3612
aasS'1203BL'
p3613
(lp3614
F0.25
aF0.75
a(lp3615
S'1203BR'
p3616
aasS'1011O5'
p3617
(lp3618
F0.77589674092738592
aF1.5809553143574411
a(lp3619
S'1011O6'
p3620
aasS'0203O2'
p3621
(lp3622
F0.79679781214407142
aF0.40467977738095473
a(lp3623
S'0203O3'
p3624
aasS'0203O3'
p3625
(lp3626
F0.6560392234981689
aF0.51268764123878463
a(lp3627
S'0203O4'
p3628
aasS'0203O0'
p3629
(lp3630
F1.1123769792298879
aF0.24388416042047689
a(lp3631
S'0203O1'
p3632
aasS'0203O1'
p3633
(lp3634
F0.9496700550659708
aF0.31463114453877816
a(lp3635
S'0203O2'
p3636
aasS'0203O6'
p3637
(lp3638
F0.3263417791268719
aF0.9271741353267523
a(lp3639
S'0203O7'
p3640
aasS'0203O7'
p3641
(lp3642
F0.25276594274625364
aF1.0886215733169853
a(lp3643
S'0203O8'
p3644
aasS'0203O4'
p3645
(lp3646
F0.52949267547816148
aF0.63704458763478411
a(lp3647
S'0203O5'
p3648
aasS'0203O5'
p3649
(lp3650
F0.4190446856425587
aF0.77589674092738603
a(lp3651
S'0203O6'
p3652
aasS'0018O0'
p3653
(lp3654
F0.24388416042047689
aF0.88762302077011257
a(lp3655
S'0018O1'
p3656
aasS'0203O8'
p3657
(lp3658
F0.1994140227551926
aF1.2578322454567332
a(lp3659
S'0203O9'
p3660
aasS'0803TR'
p3661
(lp3662
F0.75
aF0.25
a(lp3663
S'0803TL'
p3664
aasS'0005BL'
p3665
(lp3666
F0.25
aF0.75
a(lp3667
S'0006TL'
p3668
aasS'1115O3'
p3669
(lp3670
F1.4873123587612154
aF0.6560392234981689
a(lp3671
S'1115O4'
p3672
aasS'0005BR'
p3673
(lp3674
F0.75
aF0.75
a(lp3675
S'0005TR'
p3676
aasS'0803TL'
p3677
(lp3678
F0.25
aF0.25
a(lp3679
S'0703TR'
p3680
aasS'1709BL'
p3681
(lp3682
F0.25
aF0.75
a(lp3683
S'1710TL'
p3684
aasS'1705BL'
p3685
(lp3686
F0.25
aF0.75
a(lp3687
S'1706TL'
p3688
aasS'0209TR'
p3689
(lp3690
F0.75
aF0.25
a(lp3691
S'0208BR'
p3692
aasS'1115O1'
p3693
(lp3694
F1.6853688554612218
aF0.94967005506597069
a(lp3695
S'1115O2'
p3696
aasS'1501BL'
p3697
(lp3698
F0.25
aF0.75
a(lp3699
S'1502TL'
p3700
aasS'0508CC'
p3701
(lp3702
F0.5
aF0.5
a(lp3703
S'0508TL'
p3704
aS'0508BL'
p3705
aS'0508BR'
p3706
aasS'0004TL'
p3707
(lp3708
F0.25
aF0.25
a(lp3709
S'0004BL'
p3710
aasS'1910TL'
p3711
(lp3712
F0.25
aF0.25
a(lp3713
S'1910BL'
p3714
aasS'1404O8'
p3715
(lp3716
F1.8005859772448074
aF0.74216775454326722
a(lp3717
S'1404O9'
p3718
aasS'1404O9'
p3719
(lp3720
F1.832918626603796
aF0.567716389635605
a(lp3721
g1130
aasS'1404O4'
p3722
(lp3723
F1.4705073245218385
aF1.3629554123652159
a(lp3724
S'1404O5'
p3725
aasS'1404O5'
p3726
(lp3727
F1.5809553143574413
aF1.2241032590726137
a(lp3728
S'1404O6'
p3729
aasS'1404O6'
p3730
(lp3731
F1.6736582208731283
aF1.0728258646732476
a(lp3732
S'1404O7'
p3733
aasS'1404O7'
p3734
(lp3735
F1.7472340572537464
aF0.9113784266830145
a(lp3736
S'1404O8'
p3737
aasS'1404O0'
p3738
(lp3739
F0.88762302077011257
aF1.7561158395795231
a(lp3740
S'1404O1'
p3741
aasS'1404O1'
p3742
(lp3743
F1.0503299449340289
aF1.6853688554612218
a(lp3744
S'1404O2'
p3745
aasS'1404O2'
p3746
(lp3747
F1.2032021878559289
aF1.595320222619045
a(lp3748
S'1404O3'
p3749
aasS'1404O3'
p3750
(lp3751
F1.3439607765018309
aF1.4873123587612154
a(lp3752
S'1404O4'
p3753
aasS'0512TR'
p3754
(lp3755
F0.75
aF0.25
a(lp3756
S'0511BR'
p3757
aasS'0206TL'
p3758
(lp3759
F0.25
aF0.25
a(lp3760
S'0206BL'
p3761
aasS'1907TL'
p3762
(lp3763
F0.25
aF0.25
a(lp3764
S'1907BL'
p3765
aasS'1707BR'
p3766
(lp3767
F0.75
aF0.75
a(lp3768
S'1707TR'
p3769
aasS'1906BR'
p3770
(lp3771
F0.75
aF0.75
a(lp3772
S'1906TR'
p3773
aasS'0715BR'
p3774
(lp3775
F0.75
aF0.75
a(lp3776
S'0815BL'
p3777
aS'0715TR'
p3778
aasS'0004TR'
p3779
(lp3780
F0.75
aF0.25
a(lp3781
S'0003BR'
p3782
aasS'1910TR'
p3783
(lp3784
F0.75
aF0.25
a(lp3785
S'1909BR'
p3786
aasS'1918TL'
p3787
(lp3788
F0.25
aF0.25
a(lp3789
S'1818I0'
p3790
aasS'0005TL'
p3791
(lp3792
F0.25
aF0.25
a(lp3793
S'0005BL'
p3794
aasS'1102TL'
p3795
(lp3796
F0.25
aF0.25
a(lp3797
S'1102BL'
p3798
aasS'1309TL'
p3799
(lp3800
F0.25
aF0.25
a(lp3801
S'1309BL'
p3802
aasS'0703TL'
p3803
(lp3804
F0.25
aF0.25
a(lp3805
S'0603TR'
p3806
aasS'0010BL'
p3807
(lp3808
F0.25
aF0.75
a(lp3809
S'0011TL'
p3810
aasS'1500O1'
p3811
(lp3812
F0.9496700550659708
aF0.31463114453877816
a(lp3813
S'1500O2'
p3814
aasS'1500O0'
p3815
(lp3816
F1.1123769792298879
aF0.24388416042047689
a(lp3817
S'1500O1'
p3818
aasS'1500O3'
p3819
(lp3820
F0.6560392234981689
aF0.51268764123878463
a(lp3821
S'1500O4'
p3822
aasS'1500O2'
p3823
(lp3824
F0.79679781214407142
aF0.40467977738095473
a(lp3825
S'1500O3'
p3826
aasS'1500O5'
p3827
(lp3828
F0.4190446856425587
aF0.77589674092738603
a(lp3829
S'1500O6'
p3830
aasS'1500O4'
p3831
(lp3832
F0.52949267547816148
aF0.63704458763478411
a(lp3833
S'1500O5'
p3834
aasS'1500O7'
p3835
(lp3836
F0.25276594274625364
aF1.0886215733169853
a(lp3837
S'1500O8'
p3838
aasS'1500O6'
p3839
(lp3840
F0.3263417791268719
aF0.9271741353267523
a(lp3841
S'1500O7'
p3842
aasS'1500O9'
p3843
(lp3844
F0.16708137339620377
aF1.4322836103643952
a(lp3845
g1709
aasS'1500O8'
p3846
(lp3847
F0.1994140227551926
aF1.2578322454567332
a(lp3848
S'1500O9'
p3849
aasS'1800O4'
p3850
(lp3851
F1.3629554123652154
aF0.52949267547816103
a(lp3852
S'1800O5'
p3853
aasS'0502TL'
p3854
(lp3855
F0.25
aF0.25
a(lp3856
S'0502BL'
p3857
aasS'1800O6'
p3858
(lp3859
F1.0728258646732471
aF0.32634177912687146
a(lp3860
S'1800O7'
p3861
aasS'1800O7'
p3862
(lp3863
F0.91137842668301461
aF0.25276594274625364
a(lp3864
S'1800O8'
p3865
aasS'1800O0'
p3866
(lp3867
F1.7561158395795231
aF1.1123769792298879
a(lp3868
S'1800O1'
p3869
aasS'1800O1'
p3870
(lp3871
F1.6853688554612218
aF0.94967005506597069
a(lp3872
S'1800O2'
p3873
aasS'1800O2'
p3874
(lp3875
F1.5953202226190453
aF0.79679781214407119
a(lp3876
S'1800O3'
p3877
aasS'1800O3'
p3878
(lp3879
F1.4873123587612154
aF0.6560392234981689
a(lp3880
S'1800O4'
p3881
aasS'1603BR'
p3882
(lp3883
F0.25
aF0.25
a(lp3884
S'1503TR'
p3885
aasS'1319TR'
p3886
(lp3887
F0.25
aF0.75
a(lp3888
S'1218I0'
p3889
aasS'1705BR'
p3890
(lp3891
F0.75
aF0.75
a(lp3892
S'1705TR'
p3893
aasS'1800O8'
p3894
(lp3895
F0.74216775454326678
aF0.19941402275519238
a(lp3896
S'1800O9'
p3897
aasS'1800O9'
p3898
(lp3899
F0.56771638963560522
aF0.16708137339620399
a(lp3900
g1297
aasS'1903BR'
p3901
(lp3902
F0.75
aF0.75
a(lp3903
S'1903TR'
p3904
aasS'1903BL'
p3905
(lp3906
F0.25
aF0.75
a(lp3907
S'1904TL'
p3908
aasS'1009TR'
p3909
(lp3910
F0.75
aF0.25
a(lp3911
S'1008BR'
p3912
aasS'1712BR'
p3913
(lp3914
F0.75
aF0.75
a(lp3915
S'1712TR'
p3916
aS'1712CC'
p3917
aasS'0315BL'
p3918
(lp3919
F0.25
aF0.75
a(lp3920
S'0315BR'
p3921
aasS'1000I8'
p3922
(lp3923
F1.1160328759856615
aF1.1200812094630965
a(lp3924
S'1000I9'
p3925
aasS'1000I9'
p3926
(lp3927
F1.1702557086648218
aF1.2121333127278964
a(lp3928
g2629
aasS'1000I6'
p3929
(lp3930
F0.97611428056400062
aF0.95912327770727979
a(lp3931
S'1000I7'
p3932
aasS'1000I7'
p3933
(lp3934
F1.0509958826949255
aF1.0353233496333061
a(lp3935
S'1000I8'
p3936
aasS'1000I4'
p3937
(lp3938
F0.80141261743765413
aF0.83679585624843877
a(lp3939
S'1000I5'
p3940
aasS'1000I5'
p3941
(lp3942
F0.8925043818071654
aF0.89261696124713219
a(lp3943
S'1000I6'
p3944
aasS'1000I2'
p3945
(lp3946
F0.602306658649709
aF0.76036623950850302
a(lp3947
S'1000I3'
p3948
aasS'1000I3'
p3949
(lp3950
F0.70419695585213782
aF0.79249212681494852
a(lp3951
S'1000I4'
p3952
aasS'1000I0'
p3953
(lp3954
F0.39062499999999983
aF0.734375
a(lp3955
S'1000I1'
p3956
aasS'0502TR'
p3957
(lp3958
F0.75
aF0.25
a(lp3959
S'0501BR'
p3960
aasS'0904O6'
p3961
(lp3962
F1.0728258646732471
aF0.32634177912687146
a(lp3963
S'0904O7'
p3964
aasS'0904O7'
p3965
(lp3966
F0.91137842668301461
aF0.25276594274625364
a(lp3967
S'0904O8'
p3968
aasS'0904O4'
p3969
(lp3970
F1.3629554123652154
aF0.52949267547816103
a(lp3971
S'0904O5'
p3972
aasS'0904O5'
p3973
(lp3974
F1.224103259072614
aF0.4190446856425587
a(lp3975
S'0904O6'
p3976
aasS'0904O2'
p3977
(lp3978
F1.5953202226190453
aF0.79679781214407119
a(lp3979
S'0904O3'
p3980
aasS'0904O3'
p3981
(lp3982
F1.4873123587612154
aF0.6560392234981689
a(lp3983
S'0904O4'
p3984
aasS'0904O0'
p3985
(lp3986
F1.7561158395795231
aF1.1123769792298879
a(lp3987
S'0904O1'
p3988
aasS'0904O1'
p3989
(lp3990
F1.6853688554612218
aF0.94967005506597069
a(lp3991
S'0904O2'
p3992
aasS'0600TL'
p3993
(lp3994
F0.25
aF0.25
a(lp3995
S'0500TR'
p3996
aasS'1115O2'
p3997
(lp3998
F1.5953202226190453
aF0.79679781214407119
a(lp3999
S'1115O3'
p4000
aasS'1010BR'
p4001
(lp4002
F0.75
aF0.75
a(lp4003
S'1010TR'
p4004
aasS'1115O0'
p4005
(lp4006
F1.7561158395795231
aF1.1123769792298879
a(lp4007
S'1115O1'
p4008
aasS'1115O7'
p4009
(lp4010
F0.91137842668301461
aF0.25276594274625364
a(lp4011
S'1115O8'
p4012
aasS'0904I6'
p4013
(lp4014
F0.97611428056400062
aF0.95912327770727979
a(lp4015
S'0904I7'
p4016
aasS'0904O8'
p4017
(lp4018
F0.74216775454326678
aF0.19941402275519238
a(lp4019
S'0904O9'
p4020
aasS'0904O9'
p4021
(lp4022
F0.56771638963560522
aF0.16708137339620399
a(lp4023
g2717
aasS'0008TR'
p4024
(lp4025
F0.75
aF0.25
a(lp4026
S'0007BR'
p4027
aasS'1010BL'
p4028
(lp4029
F0.25
aF0.75
a(lp4030
S'1011TL'
p4031
aasS'0600TR'
p4032
(lp4033
F0.75
aF0.25
a(lp4034
S'0600TL'
p4035
aasS'0219TL'
p4036
(lp4037
F0.25
aF0.25
a(lp4038
S'0119TR'
p4039
aasS'1918TR'
p4040
(lp4041
F0.75
aF0.25
a(lp4042
S'1917BR'
p4043
aas.