(dp0
S'0904O20904O3'
p1
F0.1774223180231782
sS'0804TR0904BR'
p2
F0.5
sS'0607O10607O2'
p3
F0.17742231802317812
sS'1104O91104TR'
p4
F1.6032801649062214
sS'1205BR1305BL'
p5
F0.5
sS'1700BR1800BL'
p6
F1.0
sS'0414I00514TL'
p7
F0.14149039278339715
sS'0613O30613O4'
p8
F0.17742231802317812
sS'0706BR0706TR'
p9
F0.5
sS'0519TR0619TL'
p10
F0.5
sS'0203I30203I4'
p11
F0.1068349441859992
sS'1818I51818I6'
p12
F0.10683494418600142
sS'1500I91600BR'
p13
F0.54374601173490589
sS'1714BR1714TR'
p14
F0.5
sS'0603TL0603TR'
p15
F0.5
sS'0618O50618O6'
p16
F0.17742231802317693
sS'1503BL1504TL'
p17
F0.5
sS'0717BL0717TL'
p18
F0.5
sS'1218O01218TL'
p19
F0.6376523505090903
sS'1716BL1716TL'
p20
F0.5
sS'0414I30414I4'
p21
F0.1068349441859982
sS'0715BL0715BR'
p22
F0.5
sS'0000O30000O4'
p23
F0.17742231802317748
sS'1309BR1310TR'
p24
F0.5
sS'0115BR0215BL'
p25
F0.5
sS'1404I51404I6'
p26
F0.10683494418599962
sS'0212O60212O7'
p27
F0.17742231802317798
sS'1911BR1911TR'
p28
F0.5
sS'0006BL0007TL'
p29
F0.5
sS'1005BR1006TR'
p30
F0.5
sS'0804BR0904BL'
p31
F1.0
sS'1503BR1503CC'
p32
F0.35355339059327379
sS'1603O11603O2'
p33
F0.17742231802317682
sS'0414I40414I5'
p34
F0.10683494418600056
sS'1011I31011I4'
p35
F0.10683494418599858
sS'1800O21800O3'
p36
F0.17742231802317759
sS'1104O21104O3'
p37
F0.17742231802317712
sS'1603O91704BL'
p38
F1.7237001779373113
sS'0303TR0403TL'
p39
F0.5
sS'0208BL0208TL'
p40
F0.5
sS'0414O70414O8'
p41
F0.17742231802317845
sS'1719BR1719CC'
p42
F0.35355339059327379
sS'0904I80904I9'
p43
F0.10683494418599961
sS'1716BR1717TR'
p44
F0.5
sS'1903BL1903TL'
p45
F0.5
sS'0716BR0716TR'
p46
F0.5
sS'0704I80704I9'
p47
F0.10683494418599961
sS'1705BR1706TR'
p48
F0.5
sS'1115O81115O9'
p49
F0.17742231802317812
sS'0904O01005BR'
p50
F0.63765235050908864
sS'0203I70203I8'
p51
F0.1068349441859994
sS'0010BR0011TR'
p52
F0.5
sS'1909BL1910TL'
p53
F0.5
sS'1404O91405TL'
p54
F1.7237001779373122
sS'1115O01115O1'
p55
F0.17742231802317987
sS'0511BR0512TR'
p56
F0.5
sS'1710BR1710TR'
p57
F0.5
sS'0700BR0800BL'
p58
F0.5
sS'0704I70704I8'
p59
F0.10683494418600009
sS'1000I01000I1'
p60
F0.10683494418599963
sS'1715BR1715TR'
p61
F0.5
sS'0618I60618I7'
p62
F0.10683494418600051
sS'1008BR1008TR'
p63
F0.5
sS'1000O11000O2'
p64
F0.17742231802317693
sS'1006BR1006TR'
p65
F0.5
sS'1915BL1915TL'
p66
F0.5
sS'1115O11115O2'
p67
F0.17742231802317721
sS'0502BR0503TR'
p68
F0.5
sS'0513BR0613BL'
p69
F1.0
sS'0002BR0002TR'
p70
F0.5
sS'0009BR0009TR'
p71
F0.5
sS'0607O00608BL'
p72
F0.63765235050908864
sS'0018O60018O7'
p73
F0.17742231802317715
sS'1404O81404O9'
p74
F0.17742231802317812
sS'1303BL1303CC'
p75
F0.35355339059327379
sS'1218O31218O4'
p76
F0.1774223180231794
sS'0503CC0503TR'
p77
F0.35355339059327379
sS'0607I00707TL'
p78
F0.14149039278339715
sS'1818O51818O6'
p79
F0.17742231802317646
sS'1011I81011I9'
p80
F0.10683494418599961
sS'0215TL0215TR'
p81
F0.5
sS'1103BL1103BR'
p82
F0.5
sS'0508BL0508BR'
p83
F0.5
sS'1706BL1707TL'
p84
F0.5
sS'1800BL1800I0'
p85
F0.3597145135381668
sS'1006BL1006TL'
p86
F0.5
sS'0503BL0503BR'
p87
F0.5
sS'1916BL1916TL'
p88
F0.5
sS'0000I80000I9'
p89
F0.10683494418599905
sS'1500O21500O3'
p90
F0.17742231802317796
sS'1000O91101BL'
p91
F1.7237001779373122
sS'0014BL0014TL'
p92
F0.5
sS'0400BR0500BL'
p93
F0.5
sS'0800BL0800BR'
p94
F0.5
sS'0618O60618O7'
p95
F0.17742231802317798
sS'1708BR1708TR'
p96
F0.5
sS'1800O81800O9'
p97
F0.1774223180231764
sS'1800I11800I2'
p98
F0.10683494418599786
sS'1907BR1907TR'
p99
F0.5
sS'1000O71000O8'
p100
F0.17742231802317845
sS'0011BL0011TL'
p101
F0.5
sS'1308BR1309TR'
p102
F0.5
sS'1103BR1103CC'
p103
F0.35355339059327379
sS'1707BR1708TR'
p104
F0.5
sS'1419TL1419TR'
p105
F0.5
sS'0016BL0016TL'
p106
F0.5
sS'1500O51500O6'
p107
F0.17742231802317751
sS'1904BR1904TR'
p108
F0.5
sS'1312TR1412TL'
p109
F0.5
sS'1103BR1104TR'
p110
F1.1180339887498949
sS'1217BR1217TR'
p111
F0.5
sS'1307BL1308TL'
p112
F0.5
sS'1217BL1218TL'
p113
F0.5
sS'1913BL1913TL'
p114
F0.5
sS'0004BL0005TL'
p115
F0.5
sS'1503BL1503CC'
p116
F0.35355339059327379
sS'1103TR1203TL'
p117
F0.5
sS'1310BR1311TR'
p118
F0.5
sS'0300BR0400BL'
p119
F0.5
sS'0414O30414O4'
p120
F0.17742231802317812
sS'1011I41011I5'
p121
F0.10683494418600011
sS'0014BR0014TR'
p122
F0.5
sS'1800O11800O2'
p123
F0.17742231802317693
sS'0700BL0700BR'
p124
F0.5
sS'0904I30904I4'
p125
F0.1068349441859982
sS'0209BR0210TR'
p126
F0.5
sS'1115O91216BL'
p127
F1.7237001779373122
sS'0208BR0208TR'
p128
F0.5
sS'0904O30904O4'
p129
F0.17742231802317876
sS'0000O80000O9'
p130
F0.17742231802317759
sS'0206BL0207TL'
p131
F0.5
sS'1312CC1312TR'
p132
F0.35355339059327379
sS'1104O81104O9'
p133
F0.17742231802317812
sS'0512BL0512TL'
p134
F0.5
sS'1718BR1719TR'
p135
F0.5
sS'1711BR1712TR'
p136
F0.5
sS'0419TL0419TR'
p137
F0.5
sS'0207BL0208TL'
p138
F0.5
sS'1903BL1904TL'
p139
F0.5
sS'1603O71603O8'
p140
F0.17742231802317845
sS'1403BR1503BL'
p141
F0.5
sS'0600TL0600TR'
p142
F0.5
sS'1104O51104O6'
p143
F0.17742231802317693
sS'0800TL0800TR'
p144
F0.5
sS'0613I50613I6'
p145
F0.10683494418599893
sS'1115I81115I9'
p146
F0.10683494418600115
sS'0119TR0219TL'
p147
F1.1180339887498949
sS'1800I91901BL'
p148
F0.54374601173490611
sS'0319BR0419BL'
p149
F0.5
sS'1916BR1916TR'
p150
F0.5
sS'0419TR0519TL'
p151
F0.5
sS'1303TL1303TR'
p152
F0.5
sS'0203I80203I9'
p153
F0.10683494418599961
sS'0414O10414O2'
p154
F0.17742231802317812
sS'1912BR1913TR'
p155
F0.5
sS'1007BR1008TR'
p156
F0.5
sS'1115I01115I1'
p157
F0.10683494418599959
sS'1902BR1903TR'
p158
F0.5
sS'1212BL1212BR'
p159
F0.5
sS'0002BL0002TL'
p160
F0.5
sS'0716BL0717TL'
p161
F0.5
sS'0704O80704O9'
p162
F0.17742231802317812
sS'0018O90018TR'
p163
F1.6032801649062214
sS'1800O01800O1'
p164
F0.17742231802317845
sS'0502BR0502TR'
p165
F0.5
sS'0618I70618I8'
p166
F0.10683494418599723
sS'0018O40018O5'
p167
F0.17742231802317757
sS'0000O10000O2'
p168
F0.17742231802317693
sS'1719BL1719CC'
p169
F0.35355339059327379
sS'1011I11011I2'
p170
F0.10683494418599974
sS'0207BL0207TL'
p171
F0.5
sS'1913BR1914TR'
p172
F0.5
sS'0904O40904O5'
p173
F0.17742231802317693
sS'0607I50607I6'
p174
F0.10683494418600017
sS'1903BR1904TR'
p175
F0.5
sS'1716BR1716TR'
p176
F0.5
sS'0210BL0211TL'
p177
F0.5
sS'1501BL1502TL'
p178
F0.5
sS'1305TL1305TR'
p179
F0.5
sS'1706BL1706TL'
p180
F0.5
sS'0715TR0815TL'
p181
F0.5
sS'0607O20607O3'
p182
F0.17742231802317712
sS'1307BR1307TR'
p183
F0.5
sS'0414O50414O6'
p184
F0.17742231802317693
sS'0715BL0715TL'
p185
F0.5
sS'0500BL0500BR'
p186
F0.5
sS'0208BL0209TL'
p187
F0.5
sS'0509BR0510TR'
p188
F0.5
sS'1404I71404I8'
p189
F0.10683494418600009
sS'1007BR1007TR'
p190
F0.5
sS'0613I00613I1'
p191
F0.10683494418599959
sS'1818O91819TL'
p192
F1.7237001779373113
sS'0503BR0503CC'
p193
F0.35355339059327379
sS'1212TR1312TL'
p194
F0.5
sS'0706BL0706TL'
p195
F0.5
sS'1714BL1715TL'
p196
F0.5
sS'0703TR0803TL'
p197
F0.5
sS'1818I81818I9'
p198
F0.10683494418600203
sS'0513BR0513CC'
p199
F0.35355339059327379
sS'0413BR0513BL'
p200
F0.5
sS'0212O70212O8'
p201
F0.17742231802317787
sS'0015BL0015CC'
p202
F0.35355339059327379
sS'1818I01818I1'
p203
F0.10683494418599782
sS'0018I70018I8'
p204
F0.10683494418599876
sS'0904I20904I3'
p205
F0.10683494418600009
sS'0010BL0011TL'
p206
F0.5
sS'1800O61800O7'
p207
F0.1774223180231779
sS'0000O00100TR'
p208
F0.63765235050908842
sS'0018O30018O4'
p209
F0.17742231802317876
sS'1502BL1502TL'
p210
F0.5
sS'0704I50704I6'
p211
F0.10683494418600017
sS'0018I00119TR'
p212
F0.60313309580058694
sS'0319TL0319TR'
p213
F0.5
sS'1010BL1011TL'
p214
F0.5
sS'1707BL1708TL'
p215
F0.5
sS'1714BR1715TR'
p216
F0.5
sS'1305BL1305CC'
p217
F0.35355339059327379
sS'1500I01500I1'
p218
F0.10683494418599936
sS'0607O50607O6'
p219
F0.17742231802317693
sS'0005BR0006TR'
p220
F0.5
sS'0007BL0007TL'
p221
F0.5
sS'0613I70613I8'
p222
F0.10683494418600009
sS'0300TR0400TL'
p223
F0.5
sS'1000O01000O1'
p224
F0.17742231802317845
sS'0203I00204BR'
p225
F0.14149039278339715
sS'0007BL0008TL'
p226
F0.5
sS'1711BR1711TR'
p227
F0.5
sS'0004BR0005TR'
p228
F0.5
sS'0703BR0803BL'
p229
F0.5
sS'1212TL1212TR'
p230
F0.5
sS'0403BR0503BL'
p231
F0.5
sS'0607I90608TL'
p232
F0.54374601173490589
sS'1718BR1718TR'
p233
F0.5
sS'1818I41818I5'
p234
F0.10683494418599707
sS'0513BL0513BR'
p235
F0.5
sS'1404O01405BL'
p236
F0.63765235050908864
sS'0618O00619BL'
p237
F0.63765235050908864
sS'0413BL0413BR'
p238
F0.5
sS'1218I61218I7'
p239
F0.10683494418599801
sS'1603O21603O3'
p240
F0.17742231802317748
sS'1818O01819BL'
p241
F0.6376523505090903
sS'1403BL1403BR'
p242
F0.5
sS'1909BR1910TR'
p243
F0.5
sS'1818I71818I8'
p244
F0.10683494418599652
sS'0618I50618I6'
p245
F0.10683494418600087
sS'0001BR0002TR'
p246
F0.5
sS'1708BL1709TL'
p247
F0.5
sS'0607I00607I1'
p248
F0.10683494418599963
sS'1905BR1905TR'
p249
F0.5
sS'1912BR1912TR'
p250
F0.5
sS'0012BR0013TR'
p251
F0.5
sS'1512BR1612BL'
p252
F0.5
sS'0308TL0308TR'
p253
F0.5
sS'1912BL1913TL'
p254
F0.5
sS'1901BR1902TR'
p255
F0.5
sS'1011O01011O1'
p256
F0.17742231802317826
sS'1818O01818O1'
p257
F0.17742231802317499
sS'1115I31115I4'
p258
F0.10683494418599858
sS'1715BL1716TL'
p259
F0.5
sS'0704O20704O3'
p260
F0.1774223180231784
sS'1612TR1712TL'
p261
F0.5
sS'0607O40607O5'
p262
F0.17742231802317746
sS'0204BL0205TL'
p263
F0.5
sS'1205TR1305TL'
p264
F1.1180339887498949
sS'1218O21218O3'
p265
F0.17742231802317712
sS'0319BL0319BR'
p266
F0.5
sS'0715BL0716TL'
p267
F0.5
sS'1103CC1103TR'
p268
F0.35355339059327379
sS'1218I01218I1'
p269
F0.10683494418599959
sS'1218O91218TR'
p270
F1.6032801649062214
sS'0403TR0503TL'
p271
F0.5
sS'1519BL1519BR'
p272
F0.5
sS'1103BL1104TL'
p273
F0.5
sS'1404I01504TL'
p274
F0.14149039278339715
sS'1500I81500I9'
p275
F0.10683494418599791
sS'0900BR1000BL'
p276
F1.0
sS'1818I21818I3'
p277
F0.10683494418599838
sS'0408BL0408BR'
p278
F0.5
sS'0414I70414I8'
p279
F0.1068349441859994
sS'0212I80212I9'
p280
F0.10683494418599961
sS'0607I60607I7'
p281
F0.10683494418599927
sS'1503TL1503TR'
p282
F0.5
sS'0000O50000O6'
p283
F0.17742231802317762
sS'1112BR1212BL'
p284
F0.5
sS'0004BL0004TL'
p285
F0.5
sS'0815TR0915TL'
p286
F0.5
sS'1906BL1907TL'
p287
F0.5
sS'0017BR0017TR'
p288
F0.5
sS'0704O60704O7'
p289
F0.17742231802317718
sS'0613O70613O8'
p290
F0.17742231802317787
sS'0212I00212I1'
p291
F0.10683494418599959
sS'0715CC0715TL'
p292
F0.35355339059327379
sS'0014BL0015TL'
p293
F0.5
sS'1306BL1306TL'
p294
F0.5
sS'1000I71000I8'
p295
F0.10683494418599956
sS'1306BR1306TR'
p296
F0.5
sS'1311BR1312TR'
p297
F0.5
sS'0513BL0514TL'
p298
F0.5
sS'0704I30704I4'
p299
F0.10683494418599901
sS'0207BR0208TR'
p300
F0.5
sS'0006BR0006TR'
p301
F0.5
sS'0000O70000O8'
p302
F0.1774223180231784
sS'0715CC0715TR'
p303
F0.35355339059327379
sS'0212O10212O2'
p304
F0.17742231802317743
sS'1303TR1403TL'
p305
F0.5
sS'1404I61404I7'
p306
F0.10683494418599927
sS'0519TL0519TR'
p307
F0.5
sS'1310BL1310TL'
p308
F0.5
sS'0219BR0319BL'
p309
F0.5
sS'1104I81104I9'
p310
F0.10683494418599961
sS'1800I41800I5'
p311
F0.10683494418599765
sS'1503BL1503TL'
p312
F0.5
sS'0714BL0715TL'
p313
F0.5
sS'1712BL1713TL'
p314
F0.5
sS'1015BL1015BR'
p315
F0.5
sS'0219TL0219TR'
p316
F0.5
sS'0500BR0501TR'
p317
F0.5
sS'0203O80203O9'
p318
F0.1774223180231782
sS'1911BL1911TL'
p319
F0.5
sS'1800O41800O5'
p320
F0.17742231802317873
sS'0005BR0005TR'
p321
F0.5
sS'1916BL1917TL'
p322
F0.5
sS'0509BL0510TL'
p323
F0.5
sS'0716BL0716TL'
p324
F0.5
sS'0215BL0215BR'
p325
F0.5
sS'1115O01216BR'
p326
F0.63765235050908686
sS'1216BR1217TR'
p327
F0.5
sS'1912BL1912TL'
p328
F0.5
sS'0613I40613I5'
p329
F0.10683494418599934
sS'0703BL0703BR'
p330
F0.5
sS'0203O10203O2'
p331
F0.17742231802317704
sS'1011I21011I3'
p332
F0.10683494418600009
sS'0315TL0315TR'
p333
F0.5
sS'0203O50203O6'
p334
F0.17742231802317784
sS'1800I01800I1'
p335
F0.1068349441860014
sS'0203O60203O7'
p336
F0.17742231802317718
sS'0419BL0419BR'
p337
F0.5
sS'1600BR1700BL'
p338
F0.5
sS'1500I11500I2'
p339
F0.10683494418599952
sS'0003BR0004TR'
p340
F0.5
sS'1503TR1603BR'
p341
F0.5
sS'0800BR0900BL'
p342
F0.5
sS'1500O01600TR'
p343
F0.63765235050908686
sS'0400TL0400TR'
p344
F0.5
sS'0015BR0115BL'
p345
F0.5
sS'0618O20618O3'
p346
F0.17742231802317712
sS'1305CC1305TL'
p347
F0.35355339059327379
sS'1104I01104I1'
p348
F0.10683494418599963
sS'1419TR1519TL'
p349
F0.5
sS'1603I81603I9'
p350
F0.10683494418600051
sS'1115O41115O5'
p351
F0.17742231802317746
sS'0208BL0208CC'
p352
F0.35355339059327379
sS'0613BL0613I0'
p353
F0.3597145135381668
sS'0212I30212I4'
p354
F0.1068349441860002
sS'1218I91218TR'
p355
F0.58097962902385059
sS'0501BL0501TL'
p356
F0.5
sS'1305CC1305TR'
p357
F0.35355339059327379
sS'1719TL1719TR'
p358
F0.5
sS'0018I60018I7'
p359
F0.10683494418599825
sS'0004BR0004TR'
p360
F0.5
sS'0209BR0209TR'
p361
F0.5
sS'0618I90619TL'
p362
F0.54374601173490589
sS'0212I60212I7'
p363
F0.10683494418599958
sS'0315BL0315BR'
p364
F0.5
sS'1619BL1619BR'
p365
F0.5
sS'1603BL1603I0'
p366
F0.3597145135381668
sS'1800I51800I6'
p367
F0.10683494418600045
sS'0618I20618I3'
p368
F0.10683494418599838
sS'1309BR1309TR'
p369
F0.5
sS'1404I01404I1'
p370
F0.10683494418599959
sS'0915BL0915BR'
p371
F0.5
sS'0414O60414O7'
p372
F0.17742231802317798
sS'0509BL0509TL'
p373
F0.5
sS'0904I91005BL'
p374
F0.54374601173490589
sS'0000I20000I3'
p375
F0.10683494418599995
sS'1007BL1007TL'
p376
F0.5
sS'1103BR1103TR'
p377
F0.5
sS'1603I61603I7'
p378
F0.10683494418600083
sS'0203I40203I5'
p379
F0.10683494418599905
sS'0015CC0015TL'
p380
F0.35355339059327379
sS'0706BR0707TR'
p381
F0.5
sS'0211BR0212TR'
p382
F1.1180339887498949
sS'1713BR1714TR'
p383
F0.5
sS'1712BL1712TL'
p384
F0.5
sS'1910BR1911TR'
p385
F0.5
sS'1800I81800I9'
p386
F0.10683494418600031
sS'1704BR1705TR'
p387
F0.5
sS'1913BL1914TL'
p388
F0.5
sS'0704O50704O6'
p389
F0.17742231802317768
sS'0715BL0715CC'
p390
F0.35355339059327379
sS'1203TL1203TR'
p391
F0.5
sS'1218I81218I9'
p392
F0.10683494418600115
sS'1000I91101BL'
p393
F0.54374601173490611
sS'0502BL0502TL'
p394
F0.5
sS'1612BR1712BL'
p395
F0.5
sS'0015CC0015TR'
p396
F0.35355339059327379
sS'1909BL1909TL'
p397
F0.5
sS'1104O71104O8'
p398
F0.17742231802317845
sS'0018I10018I2'
p399
F0.10683494418599974
sS'1914BR1914TR'
p400
F0.5
sS'0203O40203O5'
p401
F0.17742231802317809
sS'1008BL1009TL'
p402
F0.5
sS'1800O31800O4'
p403
F0.17742231802317718
sS'1619TL1619TR'
p404
F0.5
sS'0603BL0603BR'
p405
F0.5
sS'0613O10613O2'
p406
F0.17742231802317768
sS'1715BL1715TL'
p407
F0.5
sS'0513BL0513TL'
p408
F0.5
sS'1306BR1307TR'
p409
F0.5
sS'1404I41404I5'
p410
F0.10683494418599859
sS'1010BL1010TL'
p411
F0.5
sS'0008BR0009TR'
p412
F0.5
sS'1011O01011TL'
p413
F0.63765235050908864
sS'1303BR1304TR'
p414
F0.5
sS'1404O31404O4'
p415
F0.17742231802317748
sS'1705BR1705TR'
p416
F0.5
sS'0203I60203I7'
p417
F0.10683494418599927
sS'1619BR1719BL'
p418
F0.5
sS'0613I30613I4'
p419
F0.10683494418599938
sS'0500BL0500CC'
p420
F0.35355339059327379
sS'1500I31500I4'
p421
F0.10683494418599959
sS'0100BR0200BL'
p422
F0.5
sS'0815BL0815BR'
p423
F0.5
sS'0012BL0013TL'
p424
F0.5
sS'1011I91011TR'
p425
F0.58097962902385059
sS'0018O20018O3'
p426
F0.17742231802317768
sS'1404O61404O7'
p427
F0.17742231802317726
sS'1818I31818I4'
p428
F0.10683494418600181
sS'0508BL0508CC'
p429
F0.35355339059327379
sS'1011O71011O8'
p430
F0.17742231802317873
sS'0212I50212I6'
p431
F0.10683494418599893
sS'1101BR1102TR'
p432
F0.5
sS'0209BL0209TL'
p433
F0.5
sS'0607O30607O4'
p434
F0.17742231802317812
sS'0414O00415BL'
p435
F0.63765235050908864
sS'1404I31404I4'
p436
F0.1068349441860002
sS'0715BR0716TR'
p437
F0.5
sS'0508BR0508CC'
p438
F0.35355339059327379
sS'1218O01218O1'
p439
F0.17742231802317499
sS'1115I11115I2'
p440
F0.10683494418599974
sS'0003BL0004TL'
p441
F0.5
sS'1903BR1903TR'
p442
F0.5
sS'1718BL1718TL'
p443
F0.5
sS'0613O20613O3'
p444
F0.17742231802317768
sS'0717BR0717TR'
p445
F0.5
sS'1707BR1707TR'
p446
F0.5
sS'0300BL0300BR'
p447
F0.5
sS'1003TR1103TL'
p448
F0.5
sS'0205BL0206TL'
p449
F0.5
sS'1011I71011I8'
p450
F0.10683494418600009
sS'1412TR1512TL'
p451
F0.5
sS'0018I90018TR'
p452
F0.58097962902385081
sS'0018I40018I5'
p453
F0.10683494418599916
sS'0210BR0211TR'
p454
F0.5
sS'0618I00718TL'
p455
F0.14149039278339715
sS'0704O90804BR'
p456
F1.7237001779373122
sS'0206BR0207TR'
p457
F0.5
sS'0508TR0608TL'
p458
F0.5
sS'0603BR0703BL'
p459
F0.5
sS'0414I80414I9'
p460
F0.10683494418599961
sS'0512BR0512TR'
p461
F0.5
sS'1712BR1713TR'
p462
F0.5
sS'1010BR1010TR'
p463
F0.5
sS'0208BR0308BL'
p464
F0.5
sS'0212I40212I5'
p465
F0.10683494418599897
sS'1308BL1309TL'
p466
F0.5
sS'1906BL1906TL'
p467
F0.5
sS'1000O31000O4'
p468
F0.17742231802317843
sS'1710BL1710TL'
p469
F0.5
sS'1115O31115O4'
p470
F0.17742231802317812
sS'1603I31603I4'
p471
F0.10683494418600163
sS'0513BL0513CC'
p472
F0.35355339059327379
sS'1603O81603O9'
p473
F0.17742231802317637
sS'1905BR1906TR'
p474
F0.5
sS'1104I91104TR'
p475
F0.58097962902385059
sS'1102BL1102TL'
p476
F0.5
sS'1904BL1905TL'
p477
F0.5
sS'1218I31218I4'
p478
F0.10683494418599858
sS'0010BR0010TR'
p479
F0.5
sS'1818I11818I2'
p480
F0.10683494418600149
sS'1115I91216BL'
p481
F0.54374601173490589
sS'0705BL0706TL'
p482
F0.5
sS'1503CC1503TL'
p483
F0.35355339059327379
sS'1011I01011I1'
p484
F0.10683494418599959
sS'1500O01500O1'
p485
F0.17742231802317987
sS'0300TL0300TR'
p486
F0.5
sS'0009BR0010TR'
p487
F0.5
sS'0212I20212I3'
p488
F0.10683494418599923
sS'0715BR0715TR'
p489
F0.5
sS'0400BL0400BR'
p490
F0.5
sS'1403TR1503TL'
p491
F0.5
sS'1503CC1503TR'
p492
F0.35355339059327379
sS'1603O41603O5'
p493
F0.17742231802317859
sS'0018I00018I1'
p494
F0.10683494418599936
sS'1000I61000I7'
p495
F0.10683494418599943
sS'1519BR1619BL'
p496
F0.5
sS'0018O00018TL'
p497
F0.6376523505090903
sS'1818O21818O3'
p498
F0.17742231802317712
sS'0704I10704I2'
p499
F0.10683494418599958
sS'1712BL1712CC'
p500
F0.35355339059327379
sS'1818O81818O9'
p501
F0.17742231802317637
sS'1917BR1918TR'
p502
F0.5
sS'0219TR0319TL'
p503
F0.5
sS'0200BR0300BL'
p504
F0.5
sS'1309BL1309TL'
p505
F0.5
sS'0203O30203O4'
p506
F0.17742231802317748
sS'0717BL0718TL'
p507
F0.5
sS'0000I70000I8'
p508
F0.10683494418599987
sS'0607I20607I3'
p509
F0.10683494418599923
sS'0015TR0115TL'
p510
F0.5
sS'0013BR0014TR'
p511
F0.5
sS'0013BL0013TL'
p512
F0.5
sS'0414O90415TL'
p513
F1.7237001779373122
sS'0613I10613I2'
p514
F0.10683494418599974
sS'1305BR1306TR'
p515
F0.5
sS'0007BR0007TR'
p516
F0.5
sS'1910BL1911TL'
p517
F0.5
sS'0618O90619TL'
p518
F1.7237001779373113
sS'1712BR1712TR'
p519
F0.5
sS'0414I90415TL'
p520
F0.54374601173490589
sS'0315TR0415TL'
p521
F0.5
sS'0513TL0513TR'
p522
F0.5
sS'0204BR0205TR'
p523
F0.5
sS'1512TR1612TL'
p524
F0.5
sS'1310BL1311TL'
p525
F0.5
sS'1907BL1907TL'
p526
F0.5
sS'1307BR1308TR'
p527
F0.5
sS'0904O80904O9'
p528
F0.17742231802317812
sS'0211BR0211TR'
p529
F0.5
sS'1603O61603O7'
p530
F0.17742231802317798
sS'0413TR0513TL'
p531
F0.5
sS'1502BL1503TL'
p532
F0.5
sS'1000O41000O5'
p533
F0.17742231802317734
sS'1307BL1307TL'
p534
F0.5
sS'1000I51000I6'
p535
F0.10683494418599906
sS'0100TR0200TL'
p536
F0.5
sS'0205BL0205TL'
p537
F0.5
sS'0200TR0300TL'
p538
F0.5
sS'1603I11603I2'
p539
F0.10683494418599783
sS'1700TR1800BR'
p540
F0.5
sS'0018I30018I4'
p541
F0.10683494418599979
sS'0815TL0815TR'
p542
F0.5
sS'1500I51500I6'
p543
F0.10683494418599911
sS'0208BR0208CC'
p544
F0.35355339059327379
sS'0716BR0717TR'
p545
F0.5
sS'1305TR1405TL'
p546
F0.5
sS'1218I41218I5'
p547
F0.10683494418600011
sS'1310BR1310TR'
p548
F0.5
sS'0704O70704O8'
p549
F0.17742231802317845
sS'0900BL0900BR'
p550
F0.5
sS'1712CC1712TL'
p551
F0.35355339059327379
sS'1818O61818O7'
p552
F0.17742231802317726
sS'0001BL0002TL'
p553
F0.5
sS'1704BL1705TL'
p554
F0.5
sS'1306BL1307TL'
p555
F0.5
sS'1218O61218O7'
p556
F0.17742231802317726
sS'1905BL1906TL'
p557
F0.5
sS'1603I51603I6'
p558
F0.10683494418600059
sS'1712CC1712TR'
p559
F0.35355339059327379
sS'1600TR1700TL'
p560
F0.5
sS'0212I00313TR'
p561
F0.60313309580058694
sS'1009BL1010TL'
p562
F0.5
sS'0011BL0012TL'
p563
F0.5
sS'1800O01901BR'
p564
F0.63765235050908842
sS'1011I61011I7'
p565
F0.10683494418599927
sS'0704I00704I1'
p566
F0.10683494418599963
sS'0010BL0010TL'
p567
F0.5
sS'0212O20212O3'
p568
F0.17742231802317768
sS'1218I21218I3'
p569
F0.10683494418600009
sS'0000O60000O7'
p570
F0.17742231802317779
sS'0704O10704O2'
p571
F0.17742231802317687
sS'0203I20203I3'
p572
F0.10683494418599995
sS'0904O91005BL'
p573
F1.7237001779373122
sS'0704I60704I7'
p574
F0.10683494418599863
sS'0203O90303BR'
p575
F1.7237001779373124
sS'1104I11104I2'
p576
F0.10683494418599958
sS'0313BR0413BL'
p577
F0.5
sS'1907BL1908TL'
p578
F0.5
sS'0210BL0210TL'
p579
F0.5
sS'1706BR1707TR'
p580
F0.5
sS'1308BR1308TR'
p581
F0.5
sS'0513BR0514TR'
p582
F0.5
sS'1103BL1103TL'
p583
F0.5
sS'1008BR1009TR'
p584
F0.5
sS'0511BL0512TL'
p585
F0.5
sS'0513CC0513TL'
p586
F0.35355339059327379
sS'0815BR0915BL'
p587
F0.5
sS'0513CC0513TR'
p588
F0.35355339059327379
sS'1914BR1915TR'
p589
F0.5
sS'1909BR1909TR'
p590
F0.5
sS'1303CC1303TL'
p591
F0.35355339059327379
sS'0210BR0210TR'
p592
F0.5
sS'0002BR0003TR'
p593
F0.5
sS'0017BR0018TR'
p594
F1.1180339887498949
sS'0700TL0700TR'
p595
F0.5
sS'0607O80607O9'
p596
F0.17742231802317812
sS'1715BR1716TR'
p597
F0.5
sS'1000O01101BR'
p598
F0.63765235050908842
sS'1706BR1706TR'
p599
F0.5
sS'1404I91405TL'
p600
F0.54374601173490589
sS'1311BR1311TR'
p601
F0.5
sS'1914BL1914TL'
p602
F0.5
sS'1403TL1403TR'
p603
F0.5
sS'1711BL1711TL'
p604
F0.5
sS'1203BL1203BR'
p605
F0.5
sS'0018O50018O6'
p606
F0.17742231802317759
sS'1104I51104I6'
p607
F0.10683494418599948
sS'0203I50203I6'
p608
F0.10683494418600017
sS'1500I41500I5'
p609
F0.10683494418599897
sS'1303CC1303TR'
p610
F0.35355339059327379
sS'1011O21011O3'
p611
F0.17742231802317712
sS'1603O51603O6'
p612
F0.17742231802317668
sS'0618O40618O5'
p613
F0.17742231802317884
sS'0613I20613I3'
p614
F0.10683494418599923
sS'1708BR1709TR'
p615
F0.5
sS'1603I71603I8'
p616
F0.10683494418599723
sS'0500BL0501TL'
p617
F0.5
sS'1404O01404O1'
p618
F0.17742231802317826
sS'0704I20704I3'
p619
F0.10683494418600009
sS'1910BL1910TL'
p620
F0.5
sS'0414I60414I7'
p621
F0.10683494418599927
sS'1719BR1719TR'
p622
F0.5
sS'1619TR1719TL'
p623
F0.5
sS'0519BR0619BL'
p624
F0.5
sS'1711BL1712TL'
p625
F0.5
sS'1800O71800O8'
p626
F0.17742231802317845
sS'1710BL1711TL'
p627
F0.5
sS'1104I41104I5'
p628
F0.10683494418600056
sS'0607I70607I8'
p629
F0.1068349441859994
sS'1818I61818I7'
p630
F0.10683494418599924
sS'0205BR0205TR'
p631
F0.5
sS'0015BR0016TR'
p632
F0.5
sS'0005BL0005TL'
p633
F0.5
sS'0510BL0511TL'
p634
F0.5
sS'0413TL0413TR'
p635
F0.5
sS'1404O21404O3'
p636
F0.17742231802317768
sS'0313TR0413TL'
p637
F1.1180339887498949
sS'0215TR0315TL'
p638
F0.5
sS'0903BR1003BL'
p639
F0.5
sS'1104O01104TL'
p640
F0.63765235050908864
sS'0715BR0815BL'
p641
F0.5
sS'1309BL1310TL'
p642
F0.5
sS'0704O40704O5'
p643
F0.17742231802317818
sS'0000I00001BR'
p644
F0.14149039278339715
sS'1800I71800I8'
p645
F0.1068349441859974
sS'1101BL1102TL'
p646
F0.5
sS'0613I60613I7'
p647
F0.1068349441859999
sS'0915BR1015BL'
p648
F0.5
sS'1713BL1714TL'
p649
F0.5
sS'1104I31104I4'
p650
F0.1068349441859982
sS'0500BR0500CC'
p651
F0.35355339059327379
sS'1011O11011O2'
p652
F0.17742231802317812
sS'0513TR0613BR'
p653
F0.5
sS'1104O01104O1'
p654
F0.17742231802317826
sS'1503BR1503TR'
p655
F0.5
sS'1000O21000O3'
p656
F0.17742231802317865
sS'1015BR1115BL'
p657
F1.0
sS'1104I71104I8'
p658
F0.1068349441859994
sS'1512BL1512BR'
p659
F0.5
sS'1115O71115O8'
p660
F0.17742231802317873
sS'0500BR0600BL'
p661
F0.5
sS'1708BL1708TL'
p662
F0.5
sS'0607O00607O1'
p663
F0.17742231802317826
sS'1005BL1006TL'
p664
F0.5
sS'1102BR1103TR'
p665
F0.5
sS'0400TR0500TL'
p666
F0.5
sS'1712BR1712CC'
p667
F0.35355339059327379
sS'0403TL0403TR'
p668
F0.5
sS'0600TR0700TL'
p669
F0.5
sS'0704O00804TR'
p670
F0.63765235050908864
sS'1911BL1912TL'
p671
F0.5
sS'1512TL1512TR'
p672
F0.5
sS'0607O70607O8'
p673
F0.17742231802317759
sS'1519TL1519TR'
p674
F0.5
sS'1916BR1917TR'
p675
F0.5
sS'0212O00212O1'
p676
F0.17742231802317826
sS'0403BL0403BR'
p677
F0.5
sS'0613O00714BR'
p678
F0.63765235050908864
sS'1709BL1710TL'
p679
F0.5
sS'0613O60613O7'
p680
F0.17742231802317643
sS'0903TL0903TR'
p681
F0.5
sS'0600BR0700BL'
p682
F0.5
sS'1915BR1915TR'
p683
F0.5
sS'1115I41115I5'
p684
F0.10683494418600011
sS'0015BR0015TR'
p685
F0.5
sS'1904BR1905TR'
p686
F0.5
sS'1103TL1103TR'
p687
F0.5
sS'0013BR0013TR'
p688
F0.5
sS'1011O51011O6'
p689
F0.17742231802317646
sS'1917BL1918TL'
p690
F0.5
sS'0618I80618I9'
p691
F0.10683494418600051
sS'0900TL0900TR'
p692
F0.5
sS'0903BL0903BR'
p693
F0.5
sS'0212I70212I8'
p694
F0.10683494418600009
sS'0503TR0603TL'
p695
F0.5
sS'0904I00904I1'
p696
F0.10683494418599963
sS'1000BL1000I0'
p697
F0.3597145135381668
sS'0508TL0508TR'
p698
F0.5
sS'0016BL0017TL'
p699
F0.5
sS'0018O80018O9'
p700
F0.1774223180231779
sS'1709BR1710TR'
p701
F0.5
sS'1218O71218O8'
p702
F0.17742231802317873
sS'1304BL1305TL'
p703
F0.5
sS'1103BL1103CC'
p704
F0.35355339059327379
sS'0017BL0018TL'
p705
F0.5
sS'1305BR1405BL'
p706
F0.5
sS'1103CC1103TL'
p707
F0.35355339059327379
sS'0803BR0903BL'
p708
F0.5
sS'0208BL0208BR'
p709
F0.5
sS'0414I00414I1'
p710
F0.10683494418599963
sS'0903TR1003TL'
p711
F0.5
sS'1003TL1003TR'
p712
F0.5
sS'1404O11404O2'
p713
F0.17742231802317768
sS'0212I90212TR'
p714
F0.58097962902385059
sS'0501BR0502TR'
p715
F0.5
sS'1913BR1913TR'
p716
F0.5
sS'0500TR0600TL'
p717
F0.5
sS'1000I81000I9'
p718
F0.10683494418599943
sS'1404O71404O8'
p719
F0.17742231802317787
sS'1010BR1011TR'
p720
F1.1180339887498949
sS'1218I11218I2'
p721
F0.10683494418599974
sS'0000I60000I7'
p722
F0.10683494418599951
sS'0704I00705BR'
p723
F0.14149039278339715
sS'1312CC1312TL'
p724
F0.35355339059327379
sS'0503BR0503TR'
p725
F0.5
sS'1312BR1312TR'
p726
F0.5
sS'0508BR0509TR'
p727
F0.5
sS'1009BR1010TR'
p728
F0.5
sS'0904I70904I8'
p729
F0.1068349441859994
sS'1612BL1612BR'
p730
F0.5
sS'0705BR0706TR'
p731
F0.5
sS'0503CC0503TL'
p732
F0.35355339059327379
sS'0015BL0016TL'
p733
F0.5
sS'0203O00303TR'
p734
F0.63765235050908864
sS'1303BR1403BL'
p735
F0.5
sS'1908BR1908TR'
p736
F0.5
sS'0000O00000O1'
p737
F0.17742231802317834
sS'0803TL0803TR'
p738
F0.5
sS'1006BL1007TL'
p739
F0.5
sS'0308TR0408TL'
p740
F0.5
sS'1901BL1902TL'
p741
F0.5
sS'1104O61104O7'
p742
F0.17742231802317798
sS'1312TL1312TR'
p743
F0.5
sS'0018O10018O2'
p744
F0.17742231802317907
sS'0603TR0703TL'
p745
F0.5
sS'1218I71218I8'
p746
F0.10683494418599868
sS'1003BR1103BL'
p747
F0.5
sS'1908BL1908TL'
p748
F0.5
sS'0704I40704I5'
p749
F0.10683494418599905
sS'1705BL1706TL'
p750
F0.5
sS'1311BL1312TL'
p751
F0.5
sS'1218O41218O5'
p752
F0.17742231802317746
sS'0212O90212TR'
p753
F1.6032801649062214
sS'1218O51218O6'
p754
F0.17742231802317646
sS'1906BR1907TR'
p755
F0.5
sS'1717BR1717TR'
p756
F0.5
sS'0607I10607I2'
p757
F0.10683494418599958
sS'1319BR1419BL'
p758
F0.5
sS'0613I90714BL'
p759
F0.54374601173490589
sS'0408BR0508BL'
p760
F0.5
sS'1011O81011O9'
p761
F0.17742231802317812
sS'0501BR0501TR'
p762
F0.5
sS'1500O91600BR'
p763
F1.723700177937312
sS'1818O41818O5'
p764
F0.17742231802317884
sS'1311BL1311TL'
p765
F0.5
sS'1304BR1305TR'
p766
F0.5
sS'0904I40904I5'
p767
F0.10683494418600056
sS'0519BL0519BR'
p768
F0.5
sS'1917BR1917TR'
p769
F0.5
sS'0900TR1000BR'
p770
F0.5
sS'1709BL1709TL'
p771
F0.5
sS'0203O20203O3'
p772
F0.17742231802317804
sS'0011BR0011TR'
p773
F0.5
sS'0000I40000I5'
p774
F0.10683494418599943
sS'1102BR1102TR'
p775
F0.5
sS'1216BL1217TL'
p776
F0.5
sS'1603I41603I5'
p777
F0.10683494418599754
sS'1008BL1008TL'
p778
F0.5
sS'0018O70018O8'
p779
F0.17742231802317807
sS'1519TR1619TL'
p780
F0.5
sS'1603O01603O1'
p781
F0.17742231802317826
sS'1902BL1902TL'
p782
F0.5
sS'0414I10414I2'
p783
F0.10683494418599958
sS'0219BL0219BR'
p784
F0.5
sS'1011I51011I6'
p785
F0.10683494418599893
sS'0704O30704O4'
p786
F0.17742231802317748
sS'1719CC1719TL'
p787
F0.35355339059327379
sS'1700BL1700BR'
p788
F0.5
sS'0618O70618O8'
p789
F0.17742231802317845
sS'0212O00212TL'
p790
F0.63765235050908864
sS'0512BL0513TL'
p791
F0.5
sS'1319TR1419TL'
p792
F1.1180339887498949
sS'0714BR0715TR'
p793
F0.5
sS'1419BR1519BL'
p794
F0.5
sS'0618I30618I4'
p795
F0.10683494418600144
sS'1917BL1917TL'
p796
F0.5
sS'0717BR0718TR'
p797
F0.5
sS'1312BL1312BR'
p798
F0.5
sS'0000I90100BR'
p799
F0.54374601173490611
sS'1104O11104O2'
p800
F0.17742231802317812
sS'1915BR1916TR'
p801
F0.5
sS'1000I41000I5'
p802
F0.10683494418600067
sS'0012BR0012TR'
p803
F0.5
sS'1218I51218I6'
p804
F0.10683494418600002
sS'1908BL1909TL'
p805
F0.5
sS'1603I91704BL'
p806
F0.54374601173490589
sS'0613O00613O1'
p807
F0.17742231802317826
sS'0009BL0009TL'
p808
F0.5
sS'0018I80018I9'
p809
F0.10683494418600102
sS'0509BR0509TR'
p810
F0.5
sS'0203O70203O8'
p811
F0.17742231802317845
sS'1115I21115I3'
p812
F0.10683494418600009
sS'1603I01603I1'
p813
F0.10683494418600141
sS'1910BR1910TR'
p814
F0.5
sS'1800I21800I3'
p815
F0.10683494418599829
sS'1717BL1717TL'
p816
F0.5
sS'0618O10618O2'
p817
F0.17742231802317721
sS'0212O80212O9'
p818
F0.17742231802317812
sS'1905BL1905TL'
p819
F0.5
sS'0618I10618I2'
p820
F0.10683494418600133
sS'1818O11818O2'
p821
F0.17742231802317873
sS'0005BL0006TL'
p822
F0.5
sS'1104I01205TR'
p823
F0.60313309580058694
sS'1914BL1915TL'
p824
F0.5
sS'0211BL0211TL'
p825
F0.5
sS'1904BL1904TL'
p826
F0.5
sS'0904O70904O8'
p827
F0.17742231802317845
sS'1603O01704BR'
p828
F0.63765235050908864
sS'1404I81404I9'
p829
F0.10683494418599961
sS'0508BR0608BL'
p830
F0.5
sS'0017BL0017TL'
p831
F0.5
sS'0618O30618O4'
p832
F0.17742231802317687
sS'1115I61115I7'
p833
F0.10683494418599927
sS'0115TL0115TR'
p834
F0.5
sS'0501BL0502TL'
p835
F0.5
sS'1303BR1303CC'
p836
F0.35355339059327379
sS'1104O41104O5'
p837
F0.17742231802317746
sS'1818O71818O8'
p838
F0.17742231802317873
sS'1902BL1903TL'
p839
F0.5
sS'0006BR0007TR'
p840
F0.5
sS'0618I40618I5'
p841
F0.10683494418599754
sS'0119BR0219BL'
p842
F0.5
sS'1000O51000O6'
p843
F0.17742231802317832
sS'0510BL0510TL'
p844
F0.5
sS'0511BL0511TL'
p845
F0.5
sS'0212I10212I2'
p846
F0.10683494418599974
sS'0704I90804BR'
p847
F0.54374601173490589
sS'1719CC1719TR'
p848
F0.35355339059327379
sS'0618O80618O9'
p849
F0.17742231802317637
sS'1603I21603I3'
p850
F0.10683494418599826
sS'1011O41011O5'
p851
F0.17742231802317746
sS'0208CC0208TL'
p852
F0.35355339059327379
sS'0706BL0707TL'
p853
F0.5
sS'1104I21104I3'
p854
F0.10683494418600009
sS'0211BL0212TL'
p855
F0.5
sS'0200BL0200BR'
p856
F0.5
sS'0510BR0511TR'
p857
F0.5
sS'0208CC0208TR'
p858
F0.35355339059327379
sS'0007BR0008TR'
p859
F0.5
sS'0513BR0513TR'
p860
F0.5
sS'0607O90608TL'
p861
F1.7237001779373122
sS'1011O31011O4'
p862
F0.17742231802317812
sS'0200TL0200TR'
p863
F0.5
sS'1716BL1717TL'
p864
F0.5
sS'0904I10904I2'
p865
F0.10683494418599958
sS'1800I31800I4'
p866
F0.10683494418600163
sS'1000I11000I2'
p867
F0.10683494418599961
sS'0203O00203O1'
p868
F0.17742231802317826
sS'1312BR1312CC'
p869
F0.35355339059327379
sS'1717BR1718TR'
p870
F0.5
sS'0000I50000I6'
p871
F0.10683494418599938
sS'1000O61000O7'
p872
F0.17742231802317626
sS'0308BL0308BR'
p873
F0.5
sS'0613O50613O6'
p874
F0.17742231802317893
sS'0209BL0210TL'
p875
F0.5
sS'1115BL1115I0'
p876
F0.3597145135381668
sS'1308BL1308TL'
p877
F0.5
sS'0000O90100BR'
p878
F1.7237001779373124
sS'1700TL1700TR'
p879
F0.5
sS'0904O00904O1'
p880
F0.17742231802317826
sS'0018I50018I6'
p881
F0.10683494418600002
sS'1412BL1412BR'
p882
F0.5
sS'0000I30000I4'
p883
F0.10683494418599949
sS'0016BR0017TR'
p884
F0.5
sS'1500I61500I7'
p885
F0.10683494418599951
sS'1212BR1312BL'
p886
F0.5
sS'1102BL1103TL'
p887
F0.5
sS'0414O40414O5'
p888
F0.17742231802317746
sS'1304BR1304TR'
p889
F0.5
sS'0803BL0803BR'
p890
F0.5
sS'0115BL0115BR'
p891
F0.5
sS'1603O31603O4'
p892
F0.17742231802317751
sS'0700TR0800TL'
p893
F0.5
sS'0613O40613O5'
p894
F0.17742231802317746
sS'0503BL0503CC'
p895
F0.35355339059327379
sS'1503BL1503BR'
p896
F0.5
sS'0012BL0012TL'
p897
F0.5
sS'1305BR1305TR'
p898
F0.5
sS'0613I80613I9'
p899
F0.10683494418599961
sS'0212O50212O6'
p900
F0.17742231802317759
sS'1303BL1303BR'
p901
F0.5
sS'0915TR1015TL'
p902
F0.5
sS'0618I00618I1'
p903
F0.10683494418599786
sS'1800O91901BL'
p904
F1.7237001779373116
sS'1011O61011O7'
p905
F0.17742231802317798
sS'0000O40000O5'
p906
F0.17742231802317779
sS'1003BL1003BR'
p907
F0.5
sS'0205BR0206TR'
p908
F0.5
sS'1818I01918TL'
p909
F0.14149039278339715
sS'1115I71115I8'
p910
F0.10683494418599868
sS'0018O00018O1'
p911
F0.17742231802317499
sS'1000I21000I3'
p912
F0.10683494418599998
sS'0915TL0915TR'
p913
F0.5
sS'1719TR1819TL'
p914
F0.5
sS'0613O80613O9'
p915
F0.17742231802317723
sS'1404I21404I3'
p916
F0.10683494418599923
sS'1911BR1912TR'
p917
F0.5
sS'0408TR0508TL'
p918
F0.5
sS'1103BR1203BL'
p919
F0.5
sS'0203I10203I2'
p920
F0.10683494418599958
sS'1714BL1714TL'
p921
F0.5
sS'0414O20414O3'
p922
F0.17742231802317712
sS'1011O91011TR'
p923
F1.6032801649062214
sS'1800O51800O6'
p924
F0.17742231802317682
sS'1011I01112TR'
p925
F0.60313309580058694
sS'1800I61800I7'
p926
F0.10683494418600067
sS'1500O81500O9'
p927
F0.17742231802317746
sS'0511BR0511TR'
p928
F0.5
sS'0803TR0903TL'
p929
F0.5
sS'0904O60904O7'
p930
F0.17742231802317637
sS'0715BR0715CC'
p931
F0.35355339059327379
sS'1412TL1412TR'
p932
F0.5
sS'1500O31500O4'
p933
F0.17742231802317748
sS'0115TR0215TL'
p934
F0.5
sS'0904I50904I6'
p935
F0.10683494418599893
sS'0508CC0508TR'
p936
F0.35355339059327379
sS'1115O61115O7'
p937
F0.17742231802317562
sS'0503TL0503TR'
p938
F0.5
sS'1818I91819TL'
p939
F0.54374601173490589
sS'1709BR1709TR'
p940
F0.5
sS'1707BL1707TL'
p941
F0.5
sS'0414I50414I6'
p942
F0.10683494418599948
sS'0315BR0415BL'
p943
F0.5
sS'1007BL1008TL'
p944
F0.5
sS'1818O31818O4'
p945
F0.17742231802317812
sS'1104I61104I7'
p946
F0.10683494418599927
sS'0508CC0508TL'
p947
F0.35355339059327379
sS'1502BR1503TR'
p948
F0.5
sS'0704O00704O1'
p949
F0.17742231802317826
sS'0600BL0600BR'
p950
F0.5
sS'0607I80607I9'
p951
F0.10683494418599961
sS'1009BR1009TR'
p952
F0.5
sS'0800TR0900TL'
p953
F0.5
sS'0414I20414I3'
p954
F0.10683494418600009
sS'0015BR0015CC'
p955
F0.35355339059327379
sS'1217BL1217TL'
p956
F0.5
sS'0904O50904O6'
p957
F0.17742231802317845
sS'0018I20018I3'
p958
F0.10683494418599965
sS'1006BR1007TR'
p959
F0.5
sS'1717BL1718TL'
p960
F0.5
sS'0203I90303BR'
p961
F0.54374601173490589
sS'0212O40212O5'
p962
F0.17742231802317782
sS'0212O30212O4'
p963
F0.17742231802317748
sS'0009BL0010TL'
p964
F0.5
sS'0000O20000O3'
p965
F0.17742231802317857
sS'0508BL0509TL'
p966
F0.5
sS'0904I60904I7'
p967
F0.10683494418599991
sS'0607I40607I5'
p968
F0.10683494418599905
sS'1404O41404O5'
p969
F0.17742231802317818
sS'0008BR0008TR'
p970
F0.5
sS'1710BR1711TR'
p971
F0.5
sS'1501BR1502TR'
p972
F0.5
sS'1705BL1705TL'
p973
F0.5
sS'1203TR1303TL'
p974
F0.5
sS'1000O81000O9'
p975
F0.17742231802317815
sS'0015BL0015TL'
p976
F0.5
sS'0308BR0408BL'
p977
F0.5
sS'0512BR0513TR'
p978
F0.5
sS'0607O60607O7'
p979
F0.17742231802317879
sS'0510BR0510TR'
p980
F0.5
sS'1719BL1719BR'
p981
F0.5
sS'1500I01501BR'
p982
F0.14149039278339715
sS'0206BR0206TR'
p983
F0.5
sS'0419BR0519BL'
p984
F0.5
sS'1500O71500O8'
p985
F0.17742231802317873
sS'1404I11404I2'
p986
F0.10683494418599974
sS'1009BL1009TL'
p987
F0.5
sS'0500CC0500TL'
p988
F0.35355339059327379
sS'1503BR1603BL'
p989
F1.0
sS'0303BR0403BL'
p990
F0.5
sS'1015TL1015TR'
p991
F0.5
sS'0904O10904O2'
p992
F0.17742231802317721
sS'0207BR0207TR'
p993
F0.5
sS'1305BR1305CC'
p994
F0.35355339059327379
sS'0607I30607I4'
p995
F0.10683494418599983
sS'1713BL1713TL'
p996
F0.5
sS'1500O61500O7'
p997
F0.17742231802317768
sS'1500I21500I3'
p998
F0.10683494418600009
sS'1218O11218O2'
p999
F0.17742231802317965
sS'0618O00618O1'
p1000
F0.17742231802317826
sS'1419BL1419BR'
p1001
F0.5
sS'1115O21115O3'
p1002
F0.1774223180231782
sS'0500CC0500TR'
p1003
F0.35355339059327379
sS'0014BR0015TR'
p1004
F0.5
sS'1304BL1304TL'
p1005
F0.5
sS'1500I71500I8'
p1006
F0.10683494418600163
sS'0003BR0003TR'
p1007
F0.5
sS'1104O31104O4'
p1008
F0.17742231802317812
sS'1312BL1312CC'
p1009
F0.35355339059327379
sS'0414O80414O9'
p1010
F0.17742231802317812
sS'1902BR1902TR'
p1011
F0.5
sS'1303BL1304TL'
p1012
F0.5
sS'0003BL0003TL'
p1013
F0.5
sS'1412BR1512BL'
p1014
F0.5
sS'1906BR1906TR'
p1015
F0.5
sS'1015TR1115BR'
p1016
F0.5
sS'1404O51404O6'
p1017
F0.17742231802317815
sS'0904BL0904I0'
p1018
F0.3597145135381668
sS'1500O41500O5'
p1019
F0.17742231802317765
sS'1115O51115O6'
p1020
F0.17742231802317893
sS'0215BR0315BL'
p1021
F0.5
sS'1305BL1305TL'
p1022
F0.5
sS'0008BL0008TL'
p1023
F0.5
sS'0008BL0009TL'
p1024
F0.5
sS'1218I01319TR'
p1025
F0.60313309580058694
sS'0703TL0703TR'
p1026
F0.5
sS'1503BR1504TR'
p1027
F0.5
sS'1218O81218O9'
p1028
F0.17742231802317812
sS'1203BR1303BL'
p1029
F0.5
sS'0013BL0014TL'
p1030
F0.5
sS'1915BL1916TL'
p1031
F0.5
sS'1907BR1908TR'
p1032
F0.5
sS'0408TL0408TR'
p1033
F0.5
sS'1112TR1212TL'
p1034
F1.1180339887498949
sS'0000I00000I1'
p1035
F0.1068349441859994
sS'0206BL0206TL'
p1036
F0.5
sS'0002BL0003TL'
p1037
F0.5
sS'1908BR1909TR'
p1038
F0.5
sS'0015BL0015BR'
p1039
F0.5
sS'0208TR0308TL'
p1040
F0.5
sS'0319TR0419TL'
p1041
F0.5
sS'1713BR1713TR'
p1042
F0.5
sS'1217BR1218TR'
p1043
F1.1180339887498949
sS'0613O90714BL'
p1044
F1.7237001779373118
sS'0414O00414O1'
p1045
F0.17742231802317826
sS'0208BR0209TR'
p1046
F0.5
sS'0011BR0012TR'
p1047
F0.5
sS'0500TL0500TR'
p1048
F0.5
sS'0502BL0503TL'
p1049
F0.5
sS'1718BL1719TL'
p1050
F0.5
sS'1612TL1612TR'
p1051
F0.5
sS'0006BL0006TL'
p1052
F0.5
sS'0016BR0016TR'
p1053
F0.5
sS'0203I00203I1'
p1054
F0.10683494418599963
sS'1000I31000I4'
p1055
F0.10683494418599838
sS'1502BR1502TR'
p1056
F0.5
sS'1305BL1305BR'
p1057
F0.5
sS'1305BL1306TL'
p1058
F0.5
sS'1115I51115I6'
p1059
F0.10683494418599893
sS'0000I10000I2'
p1060
F0.1068349441859994
sS'1500O11500O2'
p1061
F0.17742231802317732
s.