(dp0
S'0904O20904O3'
p1
F0.20857985771978627
sS'0607O10607O2'
p2
F0.20857985771978785
sS'1015TR1115TL'
p3
F0.5
sS'1700BR1800BL'
p4
F0.5
sS'0414I00514TL'
p5
F0.14149039278339715
sS'0613O30613O4'
p6
F0.20857985771978912
sS'0706BR0706TR'
p7
F0.5
sS'0519TR0619TL'
p8
F0.5
sS'0203I30203I4'
p9
F0.12946335996400685
sS'1818I51818I6'
p10
F0.12946335996400546
sS'1500I91600BR'
p11
F0.30028809752610697
sS'1714BR1714TR'
p12
F0.5
sS'0603TL0603TR'
p13
F0.5
sS'0618O50618O6'
p14
F0.20857985771978638
sS'1503BL1504TL'
p15
F0.5
sS'0717BL0717TL'
p16
F0.5
sS'1218O01218TL'
p17
F0.18806832645422983
sS'1716BL1716TL'
p18
F0.5
sS'0414I30414I4'
p19
F0.12946335996400685
sS'1307BL1307TL'
p20
F0.5
sS'0715BL0715BR'
p21
F0.5
sS'0000O30000O4'
p22
F0.20857985771978835
sS'1309BR1310TR'
p23
F0.5
sS'0115BR0215BL'
p24
F0.5
sS'1205BR1305BL'
p25
F0.5
sS'0212O60212O7'
p26
F0.20857985771978699
sS'1911BR1911TR'
p27
F0.5
sS'0006BL0007TL'
p28
F0.5
sS'0804BR0904BL'
p29
F0.5
sS'1503BR1503CC'
p30
F0.35355339059327379
sS'1603O11603O2'
p31
F0.20857985771978915
sS'0414I40414I5'
p32
F0.12946335996400599
sS'1011I31011I4'
p33
F0.12946335996400685
sS'1800O21800O3'
p34
F0.2085798577197876
sS'1104O21104O3'
p35
F0.20857985771978627
sS'0018O90119BR'
p36
F0.34895721515469097
sS'0303TR0403TL'
p37
F0.5
sS'0208BL0208TL'
p38
F0.5
sS'0414O70414O8'
p39
F0.2085798577197881
sS'1719BR1719CC'
p40
F0.35355339059327379
sS'0904I80904I9'
p41
F0.12946335996400665
sS'1716BR1717TR'
p42
F0.5
sS'0716BR0716TR'
p43
F0.5
sS'0704I80704I9'
p44
F0.12946335996400773
sS'1705BR1706TR'
p45
F0.5
sS'1000O91000TL'
p46
F0.34895721515469036
sS'1115O81115O9'
p47
F0.20857985771978926
sS'0904O01005BR'
p48
F0.18806832645422805
sS'0203I70203I8'
p49
F0.12946335996400574
sS'0010BR0011TR'
p50
F0.5
sS'1909BL1910TL'
p51
F0.5
sS'1115O01115O1'
p52
F0.20857985771978715
sS'0511BR0512TR'
p53
F0.5
sS'1710BR1710TR'
p54
F0.5
sS'0700BR0800BL'
p55
F0.5
sS'0704I70704I8'
p56
F0.12946335996400535
sS'1000I01000I1'
p57
F0.12946335996400671
sS'1715BR1715TR'
p58
F0.5
sS'0503BR0603BL'
p59
F0.5
sS'1008BR1008TR'
p60
F0.5
sS'1000O11000O2'
p61
F0.20857985771978849
sS'1006BR1006TR'
p62
F0.5
sS'1915BL1915TL'
p63
F0.5
sS'1115O11115O2'
p64
F0.20857985771978868
sS'0502BR0503TR'
p65
F0.5
sS'0513BR0613BL'
p66
F0.5
sS'0002BR0002TR'
p67
F0.5
sS'0009BR0009TR'
p68
F0.5
sS'0607O00608BL'
p69
F0.18806832645422894
sS'0018O60018O7'
p70
F0.20857985771978807
sS'1404O81404O9'
p71
F0.2085798577197884
sS'1303BL1303CC'
p72
F0.35355339059327379
sS'1218O31218O4'
p73
F0.20857985771978813
sS'0503CC0503TR'
p74
F0.35355339059327379
sS'0607I00707TL'
p75
F0.14149039278339715
sS'1818O51818O6'
p76
F0.20857985771978524
sS'1011I81011I9'
p77
F0.12946335996400579
sS'0215TL0215TR'
p78
F0.5
sS'0508BL0508BR'
p79
F0.5
sS'1706BL1707TL'
p80
F0.5
sS'1800BL1800I0'
p81
F0.14149039278339715
sS'1006BL1006TL'
p82
F0.5
sS'0503BL0503BR'
p83
F0.5
sS'1916BL1916TL'
p84
F0.5
sS'0000I80000I9'
p85
F0.12946335996400654
sS'1500O21500O3'
p86
F0.20857985771978663
sS'1103BL1103BR'
p87
F0.5
sS'0014BL0014TL'
p88
F0.5
sS'0400BR0500BL'
p89
F0.5
sS'1603O91603TL'
p90
F0.34895721515469214
sS'0800BL0800BR'
p91
F0.5
sS'0618O60618O7'
p92
F0.20857985771979057
sS'1708BR1708TR'
p93
F0.5
sS'1800O81800O9'
p94
F0.20857985771978907
sS'1800I11800I2'
p95
F0.12946335996400773
sS'1907BR1907TR'
p96
F0.5
sS'1000O71000O8'
p97
F0.20857985771978663
sS'0011BL0011TL'
p98
F0.5
sS'1308BR1309TR'
p99
F0.5
sS'1103BR1103CC'
p100
F0.35355339059327379
sS'1707BR1708TR'
p101
F0.5
sS'1419TL1419TR'
p102
F0.5
sS'0016BL0016TL'
p103
F0.5
sS'1500O51500O6'
p104
F0.20857985771978832
sS'1904BR1904TR'
p105
F0.5
sS'1312TR1412TL'
p106
F0.5
sS'1103BR1104TR'
p107
F0.5
sS'1217BR1217TR'
p108
F0.5
sS'1307BL1308TL'
p109
F0.5
sS'1217BL1218TL'
p110
F0.5
sS'1913BL1913TL'
p111
F0.5
sS'0004BL0005TL'
p112
F0.5
sS'1503BL1503CC'
p113
F0.35355339059327379
sS'1103TR1203TL'
p114
F0.5
sS'1310BR1311TR'
p115
F0.5
sS'0300BR0400BL'
p116
F0.5
sS'0414O30414O4'
p117
F0.20857985771978885
sS'1011I41011I5'
p118
F0.12946335996400599
sS'0014BR0014TR'
p119
F0.5
sS'1800O11800O2'
p120
F0.20857985771978893
sS'0700BL0700BR'
p121
F0.5
sS'0904I30904I4'
p122
F0.12946335996400685
sS'0209BR0210TR'
p123
F0.5
sS'1901BL1902TL'
p124
F0.5
sS'0208BR0208TR'
p125
F0.5
sS'0904O30904O4'
p126
F0.20857985771978962
sS'0000O80000O9'
p127
F0.20857985771978776
sS'0206BL0207TL'
p128
F0.5
sS'1312CC1312TR'
p129
F0.35355339059327379
sS'1104O81104O9'
p130
F0.20857985771978926
sS'0512BL0512TL'
p131
F0.5
sS'1718BR1719TR'
p132
F0.5
sS'1711BR1712TR'
p133
F0.5
sS'0419TL0419TR'
p134
F0.5
sS'0207BL0208TL'
p135
F0.5
sS'1903BL1904TL'
p136
F0.5
sS'1603O71603O8'
p137
F0.20857985771978499
sS'1403BR1503BL'
p138
F0.5
sS'0600TL0600TR'
p139
F0.5
sS'1104O51104O6'
p140
F0.2085798577197891
sS'0800TL0800TR'
p141
F0.5
sS'0613I50613I6'
p142
F0.12946335996400546
sS'1912BR1913TR'
p143
F0.5
sS'1115I81115I9'
p144
F0.12946335996400407
sS'0119TR0219TL'
p145
F0.5
sS'1800I91901BL'
p146
F0.30028809752610569
sS'0319BR0419BL'
p147
F0.5
sS'1916BR1916TR'
p148
F0.5
sS'0419TR0519TL'
p149
F0.5
sS'1303TL1303TR'
p150
F0.5
sS'0203I80203I9'
p151
F0.12946335996400635
sS'0414O10414O2'
p152
F0.20857985771978785
sS'0618O90718TR'
p153
F0.34895721515469208
sS'1007BR1008TR'
p154
F0.5
sS'1115I01115I1'
p155
F0.12946335996400674
sS'1902BR1903TR'
p156
F0.5
sS'1912BL1912TL'
p157
F0.5
sS'0002BL0002TL'
p158
F0.5
sS'0716BL0717TL'
p159
F0.5
sS'0704O80704O9'
p160
F0.2085798577197884
sS'1800O01800O1'
p161
F0.20857985771978851
sS'0502BR0502TR'
p162
F0.5
sS'0618I70618I8'
p163
F0.12946335996400615
sS'0018O40018O5'
p164
F0.20857985771978882
sS'0000O10000O2'
p165
F0.20857985771978832
sS'1719BL1719CC'
p166
F0.35355339059327379
sS'1011I11011I2'
p167
F0.12946335996400574
sS'0207BL0207TL'
p168
F0.5
sS'1603I51603I6'
p169
F0.12946335996400679
sS'0904O40904O5'
p170
F0.20857985771978732
sS'0607I50607I6'
p171
F0.12946335996400621
sS'1903BR1904TR'
p172
F0.5
sS'1716BR1716TR'
p173
F0.5
sS'0210BL0211TL'
p174
F0.5
sS'1501BL1502TL'
p175
F0.5
sS'1312BR1412BL'
p176
F0.5
sS'1305TL1305TR'
p177
F0.5
sS'1706BL1706TL'
p178
F0.5
sS'0715TR0815TL'
p179
F0.5
sS'0607O20607O3'
p180
F0.20857985771978788
sS'1307BR1307TR'
p181
F0.5
sS'0414O50414O6'
p182
F0.2085798577197891
sS'0715BL0715TL'
p183
F0.5
sS'0500BL0500BR'
p184
F0.5
sS'0208BL0209TL'
p185
F0.5
sS'0509BR0510TR'
p186
F0.5
sS'1404I71404I8'
p187
F0.12946335996400535
sS'1007BR1007TR'
p188
F0.5
sS'0613I00613I1'
p189
F0.12946335996400674
sS'0503BR0503CC'
p190
F0.35355339059327379
sS'1212TR1312TL'
p191
F0.5
sS'0706BL0706TL'
p192
F0.5
sS'1714BL1715TL'
p193
F0.5
sS'0703TR0803TL'
p194
F0.5
sS'1818I81818I9'
p195
F0.12946335996400501
sS'0513BR0513CC'
p196
F0.35355339059327379
sS'0413BR0513BL'
p197
F0.5
sS'0212O70212O8'
p198
F0.20857985771978843
sS'0015BL0015CC'
p199
F0.35355339059327379
sS'1818I01818I1'
p200
F0.12946335996400493
sS'0018I70018I8'
p201
F0.12946335996400854
sS'0904I20904I3'
p202
F0.12946335996400626
sS'0010BL0011TL'
p203
F0.5
sS'1800O61800O7'
p204
F0.20857985771979035
sS'0000O00100TR'
p205
F0.18806832645422827
sS'0018O30018O4'
p206
F0.20857985771978751
sS'1011O91112BR'
p207
F0.34895721515469036
sS'0704I50704I6'
p208
F0.12946335996400546
sS'0018I00119TR'
p209
F0.14149039278339715
sS'0319TL0319TR'
p210
F0.5
sS'1010BL1011TL'
p211
F0.5
sS'1707BL1708TL'
p212
F0.5
sS'1714BR1715TR'
p213
F0.5
sS'1305BL1305CC'
p214
F0.35355339059327379
sS'1500I01500I1'
p215
F0.12946335996400649
sS'0607O50607O6'
p216
F0.2085798577197891
sS'0005BR0006TR'
p217
F0.5
sS'0007BL0007TL'
p218
F0.5
sS'0613I70613I8'
p219
F0.12946335996400499
sS'0300TR0400TL'
p220
F0.5
sS'1000O01000O1'
p221
F0.20857985771978871
sS'0203I00204BR'
p222
F0.14149039278339715
sS'0007BL0008TL'
p223
F0.5
sS'1711BR1711TR'
p224
F0.5
sS'0004BR0005TR'
p225
F0.5
sS'0703BR0803BL'
p226
F0.5
sS'1212TL1212TR'
p227
F0.5
sS'0403BR0503BL'
p228
F0.5
sS'0607I90608TL'
p229
F0.30028809752610608
sS'1718BR1718TR'
p230
F0.5
sS'0513BL0513BR'
p231
F0.5
sS'1404O01405BL'
p232
F0.18806832645422805
sS'1212BL1212BR'
p233
F0.5
sS'0413BL0413BR'
p234
F0.5
sS'1218I61218I7'
p235
F0.12946335996400657
sS'1603O21603O3'
p236
F0.2085798577197874
sS'1818O01819BL'
p237
F0.18806832645422983
sS'1403BL1403BR'
p238
F0.5
sS'1909BR1910TR'
p239
F0.5
sS'1818I71818I8'
p240
F0.1294633599640086
sS'0618I50618I6'
p241
F0.12946335996400679
sS'0001BR0002TR'
p242
F0.5
sS'1708BL1709TL'
p243
F0.5
sS'0607I00607I1'
p244
F0.12946335996400674
sS'1905BR1905TR'
p245
F0.5
sS'1912BR1912TR'
p246
F0.5
sS'0012BR0013TR'
p247
F0.5
sS'1512BR1612BL'
p248
F0.5
sS'0308TL0308TR'
p249
F0.5
sS'1912BL1913TL'
p250
F0.5
sS'1901BR1902TR'
p251
F0.5
sS'1011O01011O1'
p252
F0.20857985771978893
sS'1818O01818O1'
p253
F0.20857985771978696
sS'1115I31115I4'
p254
F0.12946335996400776
sS'1715BL1716TL'
p255
F0.5
sS'0704O20704O3'
p256
F0.20857985771978627
sS'1612TR1712TL'
p257
F0.5
sS'0607O40607O5'
p258
F0.20857985771978732
sS'0204BL0205TL'
p259
F0.5
sS'1205TR1305TL'
p260
F0.5
sS'1218O21218O3'
p261
F0.20857985771978788
sS'0319BL0319BR'
p262
F0.5
sS'1005BR1006TR'
p263
F0.5
sS'1103CC1103TR'
p264
F0.35355339059327379
sS'1218I01218I1'
p265
F0.12946335996400674
sS'0403TR0503TL'
p266
F0.5
sS'1519BL1519BR'
p267
F0.5
sS'1103BL1104TL'
p268
F0.5
sS'1404I01504TL'
p269
F0.14149039278339715
sS'1500I81500I9'
p270
F0.12946335996400418
sS'0900BR1000BL'
p271
F0.5
sS'1818I21818I3'
p272
F0.12946335996400626
sS'0408BL0408BR'
p273
F0.5
sS'0414I70414I8'
p274
F0.12946335996400615
sS'0212I80212I9'
p275
F0.1294633599640059
sS'1908BL1908TL'
p276
F0.5
sS'0607I60607I7'
p277
F0.12946335996400732
sS'1503TL1503TR'
p278
F0.5
sS'0000O50000O6'
p279
F0.20857985771978849
sS'1112BR1212BL'
p280
F0.5
sS'0004BL0004TL'
p281
F0.5
sS'0815TR0915TL'
p282
F0.5
sS'1906BL1907TL'
p283
F0.5
sS'0017BR0017TR'
p284
F0.5
sS'0704O60704O7'
p285
F0.20857985771978749
sS'0613O70613O8'
p286
F0.20857985771978763
sS'0212I00212I1'
p287
F0.12946335996400674
sS'0715CC0715TL'
p288
F0.35355339059327379
sS'0014BL0015TL'
p289
F0.5
sS'1306BL1306TL'
p290
F0.5
sS'1000I71000I8'
p291
F0.12946335996400615
sS'1306BR1306TR'
p292
F0.5
sS'1311BR1312TR'
p293
F0.5
sS'0513BL0514TL'
p294
F0.5
sS'0613O90613TL'
p295
F0.34895721515469119
sS'1719BR1819BL'
p296
F0.5
sS'0704I30704I4'
p297
F0.12946335996400685
sS'0207BR0208TR'
p298
F0.5
sS'0006BR0006TR'
p299
F0.5
sS'0000O70000O8'
p300
F0.20857985771978835
sS'0715CC0715TR'
p301
F0.35355339059327379
sS'0212O10212O2'
p302
F0.20857985771978882
sS'1303TR1403TL'
p303
F0.5
sS'1404I61404I7'
p304
F0.1294633599640076
sS'1502BL1502TL'
p305
F0.5
sS'0519TL0519TR'
p306
F0.5
sS'1310BL1310TL'
p307
F0.5
sS'0219BR0319BL'
p308
F0.5
sS'1104I81104I9'
p309
F0.12946335996400665
sS'1800I41800I5'
p310
F0.12946335996400873
sS'1503BL1503TL'
p311
F0.5
sS'0714BL0715TL'
p312
F0.5
sS'1712BL1713TL'
p313
F0.5
sS'1015BL1015BR'
p314
F0.5
sS'0219TL0219TR'
p315
F0.5
sS'0500BR0501TR'
p316
F0.5
sS'0203O80203O9'
p317
F0.20857985771978818
sS'1911BL1911TL'
p318
F0.5
sS'1800O41800O5'
p319
F0.20857985771978985
sS'0005BR0005TR'
p320
F0.5
sS'1916BL1917TL'
p321
F0.5
sS'0509BL0510TL'
p322
F0.5
sS'0716BL0716TL'
p323
F0.5
sS'0215BL0215BR'
p324
F0.5
sS'1115O01216BR'
p325
F0.18806832645422983
sS'1216BR1217TR'
p326
F0.5
sS'1218I81218I9'
p327
F0.12946335996400407
sS'0613I40613I5'
p328
F0.12946335996400665
sS'0703BL0703BR'
p329
F0.5
sS'0203O10203O2'
p330
F0.20857985771978838
sS'1011I21011I3'
p331
F0.12946335996400693
sS'0315TL0315TR'
p332
F0.5
sS'0203O50203O6'
p333
F0.20857985771978843
sS'1800I01800I1'
p334
F0.12946335996400493
sS'0203O60203O7'
p335
F0.20857985771978788
sS'0419BL0419BR'
p336
F0.5
sS'1600BR1700BL'
p337
F0.5
sS'1500I11500I2'
p338
F0.12946335996400618
sS'0003BR0004TR'
p339
F0.5
sS'0800BR0900BL'
p340
F0.5
sS'1500O01600TR'
p341
F0.18806832645422983
sS'0400TL0400TR'
p342
F0.5
sS'0015BR0115BL'
p343
F0.5
sS'0618O20618O3'
p344
F0.2085798577197886
sS'1305CC1305TL'
p345
F0.35355339059327379
sS'1104I01104I1'
p346
F0.12946335996400674
sS'1419TR1519TL'
p347
F0.5
sS'1603I81603I9'
p348
F0.12946335996400757
sS'1115O41115O5'
p349
F0.20857985771978799
sS'0208BL0208CC'
p350
F0.35355339059327379
sS'0613BL0613I0'
p351
F0.14149039278339715
sS'0212I30212I4'
p352
F0.12946335996400646
sS'1218I91218TR'
p353
F0.30028809752610697
sS'0501BL0501TL'
p354
F0.5
sS'1305CC1305TR'
p355
F0.35355339059327379
sS'1719TL1719TR'
p356
F0.5
sS'0018I60018I7'
p357
F0.12946335996400593
sS'0004BR0004TR'
p358
F0.5
sS'0209BR0209TR'
p359
F0.5
sS'0618I90619TL'
p360
F0.30028809752610591
sS'0212I60212I7'
p361
F0.12946335996400735
sS'0315BL0315BR'
p362
F0.5
sS'1619BL1619BR'
p363
F0.5
sS'1603BL1603I0'
p364
F0.14149039278339715
sS'1800I51800I6'
p365
F0.12946335996400662
sS'0618I20618I3'
p366
F0.12946335996400626
sS'1309BR1309TR'
p367
F0.5
sS'1404I01404I1'
p368
F0.12946335996400674
sS'0915BL0915BR'
p369
F0.5
sS'0414O60414O7'
p370
F0.20857985771978749
sS'0509BL0509TL'
p371
F0.5
sS'0904I91005BL'
p372
F0.30028809752610608
sS'0000I20000I3'
p373
F0.1294633599640066
sS'1007BL1007TL'
p374
F0.5
sS'1103BR1103TR'
p375
F0.5
sS'1603I61603I7'
p376
F0.1294633599640054
sS'1115O91115TL'
p377
F0.34895721515469036
sS'0203I40203I5'
p378
F0.12946335996400665
sS'0015CC0015TL'
p379
F0.35355339059327379
sS'0706BR0707TR'
p380
F0.5
sS'0211BR0212TR'
p381
F0.5
sS'1713BR1714TR'
p382
F0.5
sS'1712BL1712TL'
p383
F0.5
sS'1910BR1911TR'
p384
F0.5
sS'1800I81800I9'
p385
F0.12946335996400737
sS'1704BR1705TR'
p386
F0.5
sS'1913BL1914TL'
p387
F0.5
sS'0704O50704O6'
p388
F0.20857985771978843
sS'0715BL0715CC'
p389
F0.35355339059327379
sS'1203TL1203TR'
p390
F0.5
sS'0000O90001BL'
p391
F0.34895721515469125
sS'1000I91101BL'
p392
F0.30028809752610586
sS'0502BL0502TL'
p393
F0.5
sS'1612BR1712BL'
p394
F0.5
sS'0015CC0015TR'
p395
F0.35355339059327379
sS'1909BL1909TL'
p396
F0.5
sS'0618I60618I7'
p397
F0.1294633599640054
sS'1104O71104O8'
p398
F0.2085798577197881
sS'0018I10018I2'
p399
F0.12946335996400618
sS'1914BR1914TR'
p400
F0.5
sS'0203O40203O5'
p401
F0.20857985771978857
sS'1008BL1009TL'
p402
F0.5
sS'1800O31800O4'
p403
F0.20857985771978713
sS'1619TL1619TR'
p404
F0.5
sS'0603BL0603BR'
p405
F0.5
sS'0613O10613O2'
p406
F0.20857985771978893
sS'1715BL1715TL'
p407
F0.5
sS'0513BL0513TL'
p408
F0.5
sS'1306BR1307TR'
p409
F0.5
sS'1404I41404I5'
p410
F0.12946335996400665
sS'1010BL1010TL'
p411
F0.5
sS'0008BR0009TR'
p412
F0.5
sS'1011O01011TL'
p413
F0.18806832645422805
sS'1303BR1304TR'
p414
F0.5
sS'1404O31404O4'
p415
F0.20857985771978715
sS'1705BR1705TR'
p416
F0.5
sS'0203I60203I7'
p417
F0.1294633599640066
sS'1619BR1719BL'
p418
F0.5
sS'0613I30613I4'
p419
F0.12946335996400776
sS'0500BL0500CC'
p420
F0.35355339059327379
sS'1500I31500I4'
p421
F0.12946335996400646
sS'0100BR0200BL'
p422
F0.5
sS'0815BL0815BR'
p423
F0.5
sS'0012BL0013TL'
p424
F0.5
sS'1011I91011TR'
p425
F0.30028809752610697
sS'0018O20018O3'
p426
F0.20857985771978824
sS'1404O61404O7'
p427
F0.20857985771978738
sS'1818I31818I4'
p428
F0.12946335996400624
sS'0508BL0508CC'
p429
F0.35355339059327379
sS'1011O71011O8'
p430
F0.20857985771978843
sS'0212I50212I6'
p431
F0.12946335996400546
sS'1101BR1102TR'
p432
F0.5
sS'0209BL0209TL'
p433
F0.5
sS'0607O30607O4'
p434
F0.20857985771978885
sS'0414O00415BL'
p435
F0.18806832645422894
sS'1404I31404I4'
p436
F0.12946335996400776
sS'0715BR0716TR'
p437
F0.5
sS'0508BR0508CC'
p438
F0.35355339059327379
sS'1218O01218O1'
p439
F0.20857985771978715
sS'1115I11115I2'
p440
F0.12946335996400574
sS'0003BL0004TL'
p441
F0.5
sS'1903BR1903TR'
p442
F0.5
sS'1718BL1718TL'
p443
F0.5
sS'0613O20613O3'
p444
F0.20857985771978627
sS'0717BR0717TR'
p445
F0.5
sS'1707BR1707TR'
p446
F0.5
sS'0300BL0300BR'
p447
F0.5
sS'1003TR1103TL'
p448
F0.5
sS'0205BL0206TL'
p449
F0.5
sS'1011I71011I8'
p450
F0.12946335996400535
sS'1412TR1512TL'
p451
F0.5
sS'0018I90018TR'
p452
F0.30028809752610697
sS'0018I40018I5'
p453
F0.12946335996400649
sS'0210BR0211TR'
p454
F0.5
sS'0618I00718TL'
p455
F0.14149039278339715
sS'0206BR0207TR'
p456
F0.5
sS'0508TR0608TL'
p457
F0.5
sS'0603BR0703BL'
p458
F0.5
sS'0414I80414I9'
p459
F0.12946335996400579
sS'0512BR0512TR'
p460
F0.5
sS'1712BR1713TR'
p461
F0.5
sS'1010BR1010TR'
p462
F0.5
sS'0208BR0308BL'
p463
F0.5
sS'0212I40212I5'
p464
F0.12946335996400665
sS'1308BL1309TL'
p465
F0.5
sS'1906BL1906TL'
p466
F0.5
sS'1000O31000O4'
p467
F0.20857985771978907
sS'1710BL1710TL'
p468
F0.5
sS'1115O31115O4'
p469
F0.20857985771978962
sS'1603I31603I4'
p470
F0.12946335996400532
sS'0513BL0513CC'
p471
F0.35355339059327379
sS'1603O81603O9'
p472
F0.20857985771978907
sS'1905BR1906TR'
p473
F0.5
sS'1104I91104TR'
p474
F0.30028809752610608
sS'0714BR0715TR'
p475
F0.5
sS'1102BL1102TL'
p476
F0.5
sS'1904BL1905TL'
p477
F0.5
sS'1218I31218I4'
p478
F0.12946335996400776
sS'0010BR0010TR'
p479
F0.5
sS'1818I11818I2'
p480
F0.12946335996400749
sS'1115I91216BL'
p481
F0.30028809752610697
sS'0705BL0706TL'
p482
F0.5
sS'1503CC1503TL'
p483
F0.35355339059327379
sS'1011I01011I1'
p484
F0.12946335996400674
sS'1500O01500O1'
p485
F0.20857985771978699
sS'0300TL0300TR'
p486
F0.5
sS'0009BR0010TR'
p487
F0.5
sS'0212I20212I3'
p488
F0.12946335996400732
sS'0715BR0715TR'
p489
F0.5
sS'0400BL0400BR'
p490
F0.5
sS'1403TR1503TL'
p491
F0.5
sS'1503CC1503TR'
p492
F0.35355339059327379
sS'1603O41603O5'
p493
F0.20857985771978968
sS'0018I00018I1'
p494
F0.12946335996400649
sS'1000I61000I7'
p495
F0.12946335996400618
sS'1519BR1619BL'
p496
F0.5
sS'0018O00018TL'
p497
F0.18806832645422983
sS'1818O21818O3'
p498
F0.2085798577197886
sS'0704I10704I2'
p499
F0.12946335996400596
sS'1712BL1712CC'
p500
F0.35355339059327379
sS'1818O81818O9'
p501
F0.20857985771978541
sS'1917BR1918TR'
p502
F0.5
sS'0219TR0319TL'
p503
F0.5
sS'0200BR0300BL'
p504
F0.5
sS'1309BL1309TL'
p505
F0.5
sS'0203O30203O4'
p506
F0.20857985771978815
sS'0717BL0718TL'
p507
F0.5
sS'0000I70000I8'
p508
F0.12946335996400596
sS'0607I20607I3'
p509
F0.12946335996400626
sS'0015TR0115TL'
p510
F0.5
sS'0013BR0014TR'
p511
F0.5
sS'0013BL0013TL'
p512
F0.5
sS'0613I10613I2'
p513
F0.12946335996400574
sS'1305BR1306TR'
p514
F0.5
sS'0007BR0007TR'
p515
F0.5
sS'1910BL1911TL'
p516
F0.5
sS'0803BL0803BR'
p517
F0.5
sS'1712BR1712TR'
p518
F0.5
sS'0414I90415TL'
p519
F0.30028809752610608
sS'0315TR0415TL'
p520
F0.5
sS'0513TL0513TR'
p521
F0.5
sS'0204BR0205TR'
p522
F0.5
sS'1512TR1612TL'
p523
F0.5
sS'1310BL1311TL'
p524
F0.5
sS'1907BL1907TL'
p525
F0.5
sS'1307BR1308TR'
p526
F0.5
sS'0904O80904O9'
p527
F0.20857985771978926
sS'0211BR0211TR'
p528
F0.5
sS'1603O61603O7'
p529
F0.20857985771979035
sS'0413TR0513TL'
p530
F0.5
sS'1502BL1503TL'
p531
F0.5
sS'1000O41000O5'
p532
F0.20857985771978749
sS'1104O91205BR'
p533
F0.34895721515469036
sS'1000I51000I6'
p534
F0.12946335996400782
sS'0100TR0200TL'
p535
F0.5
sS'0205BL0205TL'
p536
F0.5
sS'0200TR0300TL'
p537
F0.5
sS'1603I11603I2'
p538
F0.12946335996400768
sS'0018I30018I4'
p539
F0.12946335996400737
sS'0815TL0815TR'
p540
F0.5
sS'1500I51500I6'
p541
F0.12946335996400554
sS'0208BR0208CC'
p542
F0.35355339059327379
sS'0716BR0717TR'
p543
F0.5
sS'1305TR1405TL'
p544
F0.5
sS'1218I41218I5'
p545
F0.12946335996400599
sS'1310BR1310TR'
p546
F0.5
sS'0704O70704O8'
p547
F0.2085798577197881
sS'0900BL0900BR'
p548
F0.5
sS'1712CC1712TL'
p549
F0.35355339059327379
sS'1818O61818O7'
p550
F0.20857985771979057
sS'0001BL0002TL'
p551
F0.5
sS'1704BL1705TL'
p552
F0.5
sS'1306BL1307TL'
p553
F0.5
sS'1218O61218O7'
p554
F0.20857985771978749
sS'1905BL1906TL'
p555
F0.5
sS'0613O00613O1'
p556
F0.20857985771978874
sS'1712CC1712TR'
p557
F0.35355339059327379
sS'1600TR1700TL'
p558
F0.5
sS'0212I00313TR'
p559
F0.14149039278339715
sS'0513TR0613TL'
p560
F0.5
sS'1009BL1010TL'
p561
F0.5
sS'0011BL0012TL'
p562
F0.5
sS'1800O01901BR'
p563
F0.18806832645422827
sS'1011I61011I7'
p564
F0.12946335996400807
sS'0704I00704I1'
p565
F0.12946335996400674
sS'0010BL0010TL'
p566
F0.5
sS'0212O20212O3'
p567
F0.20857985771978663
sS'1218I21218I3'
p568
F0.12946335996400626
sS'0000O60000O7'
p569
F0.20857985771978804
sS'0704O10704O2'
p570
F0.20857985771978893
sS'0203I20203I3'
p571
F0.12946335996400626
sS'0704I60704I7'
p572
F0.12946335996400712
sS'0715BL0716TL'
p573
F0.5
sS'1104I11104I2'
p574
F0.12946335996400596
sS'0313BR0413BL'
p575
F0.5
sS'0900TR1000TL'
p576
F0.5
sS'1907BL1908TL'
p577
F0.5
sS'0210BL0210TL'
p578
F0.5
sS'1706BR1707TR'
p579
F0.5
sS'1308BR1308TR'
p580
F0.5
sS'0513BR0514TR'
p581
F0.5
sS'1103BL1103TL'
p582
F0.5
sS'1008BR1009TR'
p583
F0.5
sS'0511BL0512TL'
p584
F0.5
sS'0513CC0513TL'
p585
F0.35355339059327379
sS'0815BR0915BL'
p586
F0.5
sS'0513CC0513TR'
p587
F0.35355339059327379
sS'1914BR1915TR'
p588
F0.5
sS'1909BR1909TR'
p589
F0.5
sS'1303CC1303TL'
p590
F0.35355339059327379
sS'0210BR0210TR'
p591
F0.5
sS'0002BR0003TR'
p592
F0.5
sS'0017BR0018TR'
p593
F0.5
sS'0700TL0700TR'
p594
F0.5
sS'1818O91918TR'
p595
F0.34895721515469208
sS'0607O80607O9'
p596
F0.2085798577197884
sS'1715BR1716TR'
p597
F0.5
sS'1000O01101BR'
p598
F0.18806832645422827
sS'1706BR1706TR'
p599
F0.5
sS'1404I91405TL'
p600
F0.30028809752610519
sS'1311BR1311TR'
p601
F0.5
sS'1914BL1914TL'
p602
F0.5
sS'1403TL1403TR'
p603
F0.5
sS'1711BL1711TL'
p604
F0.5
sS'1203BL1203BR'
p605
F0.5
sS'0018O50018O6'
p606
F0.20857985771978721
sS'1104I51104I6'
p607
F0.12946335996400679
sS'0203I50203I6'
p608
F0.12946335996400679
sS'1500I41500I5'
p609
F0.12946335996400649
sS'1303CC1303TR'
p610
F0.35355339059327379
sS'1011O21011O3'
p611
F0.20857985771978627
sS'1603O51603O6'
p612
F0.20857985771978665
sS'0618O40618O5'
p613
F0.20857985771978968
sS'0613I20613I3'
p614
F0.12946335996400626
sS'1708BR1709TR'
p615
F0.5
sS'1603I71603I8'
p616
F0.12946335996400535
sS'0500BL0501TL'
p617
F0.5
sS'1404O01404O1'
p618
F0.20857985771978874
sS'0704I20704I3'
p619
F0.12946335996400626
sS'1910BL1910TL'
p620
F0.5
sS'0414I60414I7'
p621
F0.12946335996400732
sS'1619TR1719TL'
p622
F0.5
sS'0519BR0619BL'
p623
F0.5
sS'1800O71800O8'
p624
F0.20857985771978499
sS'1710BL1711TL'
p625
F0.5
sS'1104I41104I5'
p626
F0.12946335996400599
sS'0607I70607I8'
p627
F0.12946335996400615
sS'1818I61818I7'
p628
F0.12946335996400465
sS'0205BR0205TR'
p629
F0.5
sS'0015BR0016TR'
p630
F0.5
sS'0005BL0005TL'
p631
F0.5
sS'0510BL0511TL'
p632
F0.5
sS'0413TL0413TR'
p633
F0.5
sS'1404O21404O3'
p634
F0.2085798577197886
sS'0313TR0413TL'
p635
F0.5
sS'0215TR0315TL'
p636
F0.5
sS'0903BR1003BL'
p637
F0.5
sS'1104O01104TL'
p638
F0.18806832645422894
sS'0715BR0815BL'
p639
F0.5
sS'1309BL1310TL'
p640
F0.5
sS'0704O40704O5'
p641
F0.20857985771978851
sS'0000I00001BR'
p642
F0.14149039278339715
sS'1800I71800I8'
p643
F0.12946335996400615
sS'1101BL1102TL'
p644
F0.5
sS'0613I60613I7'
p645
F0.1294633599640076
sS'0915BR1015BL'
p646
F0.5
sS'1713BL1714TL'
p647
F0.5
sS'1104I31104I4'
p648
F0.12946335996400685
sS'0500BR0500CC'
p649
F0.35355339059327379
sS'1011O11011O2'
p650
F0.20857985771978868
sS'1104O01104O1'
p651
F0.20857985771978804
sS'1503BR1503TR'
p652
F0.5
sS'1000O21000O3'
p653
F0.20857985771978688
sS'1015BR1115BL'
p654
F0.5
sS'1104I71104I8'
p655
F0.12946335996400535
sS'1512BL1512BR'
p656
F0.5
sS'1115O71115O8'
p657
F0.20857985771978679
sS'0500BR0600BL'
p658
F0.5
sS'1708BL1708TL'
p659
F0.5
sS'0607O00607O1'
p660
F0.20857985771978804
sS'1005BL1006TL'
p661
F0.5
sS'1102BR1103TR'
p662
F0.5
sS'0400TR0500TL'
p663
F0.5
sS'1712BR1712CC'
p664
F0.35355339059327379
sS'0403TL0403TR'
p665
F0.5
sS'0600TR0700TL'
p666
F0.5
sS'0704O00804TR'
p667
F0.18806832645422805
sS'1911BL1912TL'
p668
F0.5
sS'1512TL1512TR'
p669
F0.5
sS'0607O70607O8'
p670
F0.2085798577197881
sS'1519TL1519TR'
p671
F0.5
sS'1916BR1917TR'
p672
F0.5
sS'0212O00212O1'
p673
F0.20857985771978874
sS'0403BL0403BR'
p674
F0.5
sS'0613O00714BR'
p675
F0.18806832645422805
sS'1709BL1710TL'
p676
F0.5
sS'0613O60613O7'
p677
F0.20857985771978738
sS'0903TL0903TR'
p678
F0.5
sS'0600BR0700BL'
p679
F0.5
sS'1915BR1915TR'
p680
F0.5
sS'1115I41115I5'
p681
F0.12946335996400599
sS'0015BR0015TR'
p682
F0.5
sS'1904BR1905TR'
p683
F0.5
sS'1103TL1103TR'
p684
F0.5
sS'0013BR0013TR'
p685
F0.5
sS'1011O51011O6'
p686
F0.2085798577197891
sS'1917BL1918TL'
p687
F0.5
sS'0618I80618I9'
p688
F0.12946335996400674
sS'0900TL0900TR'
p689
F0.5
sS'0903BL0903BR'
p690
F0.5
sS'0212I70212I8'
p691
F0.12946335996400535
sS'0503TR0603TL'
p692
F0.5
sS'0904I00904I1'
p693
F0.12946335996400674
sS'1000BL1000I0'
p694
F0.14149039278339715
sS'0508TL0508TR'
p695
F0.5
sS'0016BL0017TL'
p696
F0.5
sS'0018O80018O9'
p697
F0.20857985771978799
sS'1709BR1710TR'
p698
F0.5
sS'1218O71218O8'
p699
F0.2085798577197891
sS'1304BL1305TL'
p700
F0.5
sS'1103BL1103CC'
p701
F0.35355339059327379
sS'0017BL0018TL'
p702
F0.5
sS'1305BR1405BL'
p703
F0.5
sS'1103CC1103TL'
p704
F0.35355339059327379
sS'0803BR0903BL'
p705
F0.5
sS'0208BL0208BR'
p706
F0.5
sS'0414I00414I1'
p707
F0.12946335996400674
sS'0903TR1003TL'
p708
F0.5
sS'1003TL1003TR'
p709
F0.5
sS'1404O11404O2'
p710
F0.20857985771978868
sS'0212I90212TR'
p711
F0.30028809752610697
sS'0501BR0502TR'
p712
F0.5
sS'1913BR1913TR'
p713
F0.5
sS'0500TR0600TL'
p714
F0.5
sS'1000I81000I9'
p715
F0.12946335996400643
sS'1404O71404O8'
p716
F0.20857985771978843
sS'1010BR1011TR'
p717
F0.5
sS'1218I11218I2'
p718
F0.12946335996400574
sS'0000I60000I7'
p719
F0.1294633599640064
sS'0704I00705BR'
p720
F0.14149039278339715
sS'1312CC1312TL'
p721
F0.35355339059327379
sS'1903BL1903TL'
p722
F0.5
sS'0508BR0509TR'
p723
F0.5
sS'1009BR1010TR'
p724
F0.5
sS'0904I70904I8'
p725
F0.12946335996400535
sS'1612BL1612BR'
p726
F0.5
sS'0705BR0706TR'
p727
F0.5
sS'0503CC0503TL'
p728
F0.35355339059327379
sS'0015BL0016TL'
p729
F0.5
sS'0203O00303TR'
p730
F0.18806832645422805
sS'0904O90904TL'
p731
F0.34895721515469036
sS'1908BR1908TR'
p732
F0.5
sS'0000O00000O1'
p733
F0.20857985771978854
sS'0803TL0803TR'
p734
F0.5
sS'1006BL1007TL'
p735
F0.5
sS'0308TR0408TL'
p736
F0.5
sS'1104O61104O7'
p737
F0.20857985771978749
sS'1312TL1312TR'
p738
F0.5
sS'0018O10018O2'
p739
F0.20857985771978876
sS'0603TR0703TL'
p740
F0.5
sS'1218I71218I8'
p741
F0.1294633599640086
sS'1003BR1103BL'
p742
F0.5
sS'0212O90313BR'
p743
F0.34895721515469119
sS'0704I40704I5'
p744
F0.12946335996400721
sS'1705BL1706TL'
p745
F0.5
sS'1311BL1312TL'
p746
F0.5
sS'1503TR1603TL'
p747
F0.5
sS'1218O41218O5'
p748
F0.20857985771978799
sS'0618O00619BL'
p749
F0.18806832645422894
sS'1218O51218O6'
p750
F0.20857985771978799
sS'1906BR1907TR'
p751
F0.5
sS'1717BR1717TR'
p752
F0.5
sS'0607I10607I2'
p753
F0.12946335996400596
sS'1319BR1419BL'
p754
F0.5
sS'0613I90714BL'
p755
F0.30028809752610519
sS'0408BR0508BL'
p756
F0.5
sS'1011O81011O9'
p757
F0.20857985771978926
sS'0501BR0501TR'
p758
F0.5
sS'1818O41818O5'
p759
F0.20857985771979035
sS'1311BL1311TL'
p760
F0.5
sS'1304BR1305TR'
p761
F0.5
sS'0904I40904I5'
p762
F0.12946335996400599
sS'0519BL0519BR'
p763
F0.5
sS'1917BR1917TR'
p764
F0.5
sS'1709BL1709TL'
p765
F0.5
sS'0203O20203O3'
p766
F0.20857985771978743
sS'0011BR0011TR'
p767
F0.5
sS'0000I40000I5'
p768
F0.12946335996400649
sS'1102BR1102TR'
p769
F0.5
sS'1216BL1217TL'
p770
F0.5
sS'1603I41603I5'
p771
F0.12946335996400873
sS'1008BL1008TL'
p772
F0.5
sS'0018O70018O8'
p773
F0.2085798577197891
sS'1519TR1619TL'
p774
F0.5
sS'0804TR0904TL'
p775
F0.5
sS'1603O01603O1'
p776
F0.20857985771978874
sS'1404I51404I6'
p777
F0.12946335996400546
sS'1902BL1902TL'
p778
F0.5
sS'0414I10414I2'
p779
F0.12946335996400596
sS'0219BL0219BR'
p780
F0.5
sS'1011I51011I6'
p781
F0.12946335996400546
sS'0704O30704O4'
p782
F0.20857985771978912
sS'1719CC1719TL'
p783
F0.35355339059327379
sS'1700BL1700BR'
p784
F0.5
sS'0618O70618O8'
p785
F0.2085798577197881
sS'0212O00212TL'
p786
F0.18806832645422805
sS'0512BL0513TL'
p787
F0.5
sS'1319TR1419TL'
p788
F0.5
sS'0607O90707TR'
p789
F0.34895721515469119
sS'1419BR1519BL'
p790
F0.5
sS'0618I30618I4'
p791
F0.12946335996400532
sS'1917BL1917TL'
p792
F0.5
sS'0717BR0718TR'
p793
F0.5
sS'1312BL1312BR'
p794
F0.5
sS'0000I90100BR'
p795
F0.30028809752610586
sS'1104O11104O2'
p796
F0.20857985771978868
sS'1915BR1916TR'
p797
F0.5
sS'1000I41000I5'
p798
F0.12946335996400599
sS'0012BR0012TR'
p799
F0.5
sS'1218I51218I6'
p800
F0.12946335996400546
sS'1908BL1909TL'
p801
F0.5
sS'1603I91704BL'
p802
F0.30028809752610591
sS'0203O90204BL'
p803
F0.34895721515469125
sS'0009BL0009TL'
p804
F0.5
sS'0018I80018I9'
p805
F0.12946335996400415
sS'0509BR0509TR'
p806
F0.5
sS'0203O70203O8'
p807
F0.20857985771978826
sS'1115I21115I3'
p808
F0.12946335996400626
sS'1603I01603I1'
p809
F0.12946335996400493
sS'0414O90514TR'
p810
F0.34895721515469036
sS'1910BR1910TR'
p811
F0.5
sS'1404O91504TR'
p812
F0.34895721515469119
sS'1800I21800I3'
p813
F0.12946335996400626
sS'1717BL1717TL'
p814
F0.5
sS'0618O10618O2'
p815
F0.20857985771978832
sS'0212O80212O9'
p816
F0.2085798577197884
sS'1905BL1905TL'
p817
F0.5
sS'0618I10618I2'
p818
F0.12946335996400768
sS'1818O11818O2'
p819
F0.20857985771978915
sS'0005BL0006TL'
p820
F0.5
sS'1104I01205TR'
p821
F0.14149039278339715
sS'1914BL1915TL'
p822
F0.5
sS'0211BL0211TL'
p823
F0.5
sS'1904BL1904TL'
p824
F0.5
sS'0904O70904O8'
p825
F0.20857985771978646
sS'1603O01704BR'
p826
F0.18806832645422805
sS'1404I81404I9'
p827
F0.12946335996400751
sS'0508BR0608BL'
p828
F0.5
sS'0017BL0017TL'
p829
F0.5
sS'0618O30618O4'
p830
F0.20857985771978696
sS'1115I61115I7'
p831
F0.12946335996400563
sS'0115TL0115TR'
p832
F0.5
sS'0501BL0502TL'
p833
F0.5
sS'1303BR1303CC'
p834
F0.35355339059327379
sS'1104O41104O5'
p835
F0.20857985771978732
sS'1818O71818O8'
p836
F0.2085798577197891
sS'1902BL1903TL'
p837
F0.5
sS'0006BR0007TR'
p838
F0.5
sS'0618I40618I5'
p839
F0.12946335996400873
sS'0119BR0219BL'
p840
F0.5
sS'1000O51000O6'
p841
F0.2085798577197894
sS'0510BL0510TL'
p842
F0.5
sS'1700TR1800TL'
p843
F0.5
sS'0511BL0511TL'
p844
F0.5
sS'0212I10212I2'
p845
F0.12946335996400574
sS'0704I90804BR'
p846
F0.30028809752610519
sS'1719CC1719TR'
p847
F0.35355339059327379
sS'0618O80618O9'
p848
F0.20857985771978579
sS'1603I21603I3'
p849
F0.12946335996400626
sS'1011O41011O5'
p850
F0.20857985771978799
sS'0208CC0208TL'
p851
F0.35355339059327379
sS'0706BL0707TL'
p852
F0.5
sS'1104I21104I3'
p853
F0.12946335996400626
sS'0211BL0212TL'
p854
F0.5
sS'0200BL0200BR'
p855
F0.5
sS'0510BR0511TR'
p856
F0.5
sS'0208CC0208TR'
p857
F0.35355339059327379
sS'0007BR0008TR'
p858
F0.5
sS'0513BR0513TR'
p859
F0.5
sS'1011O31011O4'
p860
F0.20857985771978962
sS'0200TL0200TR'
p861
F0.5
sS'1716BL1717TL'
p862
F0.5
sS'0904I10904I2'
p863
F0.12946335996400596
sS'1800I31800I4'
p864
F0.12946335996400532
sS'1000I11000I2'
p865
F0.12946335996400601
sS'0203O00203O1'
p866
F0.20857985771978874
sS'1312BR1312CC'
p867
F0.35355339059327379
sS'1717BR1718TR'
p868
F0.5
sS'0000I50000I6'
p869
F0.12946335996400685
sS'1000O61000O7'
p870
F0.20857985771978882
sS'0308BL0308BR'
p871
F0.5
sS'0613O50613O6'
p872
F0.20857985771978843
sS'0209BL0210TL'
p873
F0.5
sS'1115BL1115I0'
p874
F0.14149039278339715
sS'1308BL1308TL'
p875
F0.5
sS'1700TL1700TR'
p876
F0.5
sS'0704O90705BL'
p877
F0.34895721515469119
sS'0904O00904O1'
p878
F0.20857985771978893
sS'0018I50018I6'
p879
F0.12946335996400554
sS'1412BL1412BR'
p880
F0.5
sS'0000I30000I4'
p881
F0.12946335996400635
sS'0016BR0017TR'
p882
F0.5
sS'1500I61500I7'
p883
F0.12946335996400585
sS'1212BR1312BL'
p884
F0.5
sS'1102BL1103TL'
p885
F0.5
sS'0414O40414O5'
p886
F0.20857985771978732
sS'1304BR1304TR'
p887
F0.5
sS'0115BL0115BR'
p888
F0.5
sS'1603O31603O4'
p889
F0.20857985771978732
sS'0700TR0800TL'
p890
F0.5
sS'0613O40613O5'
p891
F0.20857985771978918
sS'0503BL0503CC'
p892
F0.35355339059327379
sS'1503BL1503BR'
p893
F0.5
sS'0012BL0012TL'
p894
F0.5
sS'1305BR1305TR'
p895
F0.5
sS'0613I80613I9'
p896
F0.12946335996400773
sS'0212O50212O6'
p897
F0.20857985771978843
sS'1303BL1303BR'
p898
F0.5
sS'0915TR1015TL'
p899
F0.5
sS'0618I00618I1'
p900
F0.12946335996400493
sS'1818I41818I5'
p901
F0.12946335996400873
sS'1011O61011O7'
p902
F0.2085798577197866
sS'1800O91800TL'
p903
F0.34895721515469214
sS'0000O40000O5'
p904
F0.20857985771978849
sS'1003BL1003BR'
p905
F0.5
sS'0205BR0206TR'
p906
F0.5
sS'1818I01918TL'
p907
F0.14149039278339715
sS'1115I71115I8'
p908
F0.1294633599640086
sS'0018O00018O1'
p909
F0.20857985771978699
sS'1000I21000I3'
p910
F0.12946335996400626
sS'0915TL0915TR'
p911
F0.5
sS'1719TR1819TL'
p912
F0.5
sS'1500O91501BL'
p913
F0.34895721515469119
sS'0613O80613O9'
p914
F0.2085798577197884
sS'1404I21404I3'
p915
F0.12946335996400626
sS'1911BR1912TR'
p916
F0.5
sS'0408TR0508TL'
p917
F0.5
sS'1103BR1203BL'
p918
F0.5
sS'0203I10203I2'
p919
F0.12946335996400596
sS'1714BL1714TL'
p920
F0.5
sS'0414O20414O3'
p921
F0.20857985771978788
sS'1800O51800O6'
p922
F0.20857985771978665
sS'1011I01112TR'
p923
F0.14149039278339715
sS'1800I61800I7'
p924
F0.12946335996400524
sS'1500O81500O9'
p925
F0.20857985771978796
sS'0511BR0511TR'
p926
F0.5
sS'0803TR0903TL'
p927
F0.5
sS'0904O60904O7'
p928
F0.20857985771978857
sS'0715BR0715CC'
p929
F0.35355339059327379
sS'1412TL1412TR'
p930
F0.5
sS'1500O31500O4'
p931
F0.20857985771978901
sS'0115TR0215TL'
p932
F0.5
sS'0904I50904I6'
p933
F0.12946335996400796
sS'0508CC0508TR'
p934
F0.35355339059327379
sS'1115O61115O7'
p935
F0.20857985771978813
sS'0503TL0503TR'
p936
F0.5
sS'1818I91819TL'
p937
F0.3002880975261068
sS'1709BR1709TR'
p938
F0.5
sS'1707BL1707TL'
p939
F0.5
sS'0414I50414I6'
p940
F0.12946335996400679
sS'0315BR0415BL'
p941
F0.5
sS'1007BL1008TL'
p942
F0.5
sS'1818O31818O4'
p943
F0.20857985771978621
sS'1104I61104I7'
p944
F0.12946335996400732
sS'0508CC0508TL'
p945
F0.35355339059327379
sS'1502BR1503TR'
p946
F0.5
sS'0704O00704O1'
p947
F0.20857985771978874
sS'0600BL0600BR'
p948
F0.5
sS'0607I80607I9'
p949
F0.12946335996400579
sS'1009BR1009TR'
p950
F0.5
sS'0800TR0900TL'
p951
F0.5
sS'0414I20414I3'
p952
F0.12946335996400626
sS'0015BR0015CC'
p953
F0.35355339059327379
sS'1303BR1403BL'
p954
F0.5
sS'1217BL1217TL'
p955
F0.5
sS'0904O50904O6'
p956
F0.20857985771978968
sS'0018I20018I3'
p957
F0.12946335996400646
sS'1006BR1007TR'
p958
F0.5
sS'1717BL1718TL'
p959
F0.5
sS'0203I90303BR'
p960
F0.30028809752610608
sS'0212O40212O5'
p961
F0.2085798577197889
sS'0212O30212O4'
p962
F0.2085798577197889
sS'0009BL0010TL'
p963
F0.5
sS'0000O20000O3'
p964
F0.20857985771978732
sS'0508BL0509TL'
p965
F0.5
sS'0904I60904I7'
p966
F0.12946335996400637
sS'0607I40607I5'
p967
F0.12946335996400665
sS'1404O41404O5'
p968
F0.20857985771978918
sS'0008BR0008TR'
p969
F0.5
sS'1710BR1711TR'
p970
F0.5
sS'1501BR1502TR'
p971
F0.5
sS'1705BL1705TL'
p972
F0.5
sS'1203TR1303TL'
p973
F0.5
sS'1000O81000O9'
p974
F0.20857985771978907
sS'0015BL0015TL'
p975
F0.5
sS'0308BR0408BL'
p976
F0.5
sS'0512BR0513TR'
p977
F0.5
sS'0607O60607O7'
p978
F0.20857985771978749
sS'0510BR0510TR'
p979
F0.5
sS'1719BL1719BR'
p980
F0.5
sS'1500I01501BR'
p981
F0.14149039278339715
sS'0206BR0206TR'
p982
F0.5
sS'0419BR0519BL'
p983
F0.5
sS'1500O71500O8'
p984
F0.20857985771978843
sS'1404I11404I2'
p985
F0.12946335996400574
sS'1009BL1009TL'
p986
F0.5
sS'0500CC0500TL'
p987
F0.35355339059327379
sS'1503BR1603BL'
p988
F0.5
sS'0303BR0403BL'
p989
F0.5
sS'1015TL1015TR'
p990
F0.5
sS'0904O10904O2'
p991
F0.20857985771978868
sS'0207BR0207TR'
p992
F0.5
sS'1305BR1305CC'
p993
F0.35355339059327379
sS'0607I30607I4'
p994
F0.12946335996400685
sS'1713BL1713TL'
p995
F0.5
sS'1500O61500O7'
p996
F0.20857985771978738
sS'1500I21500I3'
p997
F0.12946335996400712
sS'1218O11218O2'
p998
F0.20857985771978868
sS'0618O00618O1'
p999
F0.20857985771978785
sS'1419BL1419BR'
p1000
F0.5
sS'1115O21115O3'
p1001
F0.20857985771978627
sS'0500CC0500TR'
p1002
F0.35355339059327379
sS'0014BR0015TR'
p1003
F0.5
sS'1304BL1304TL'
p1004
F0.5
sS'1913BR1914TR'
p1005
F0.5
sS'1500I71500I8'
p1006
F0.1294633599640086
sS'0003BR0003TR'
p1007
F0.5
sS'1104O31104O4'
p1008
F0.20857985771978962
sS'1312BL1312CC'
p1009
F0.35355339059327379
sS'0414O80414O9'
p1010
F0.20857985771978926
sS'1902BR1902TR'
p1011
F0.5
sS'1303BL1304TL'
p1012
F0.5
sS'0003BL0003TL'
p1013
F0.5
sS'1412BR1512BL'
p1014
F0.5
sS'1906BR1906TR'
p1015
F0.5
sS'1711BL1712TL'
p1016
F0.5
sS'1404O51404O6'
p1017
F0.20857985771978774
sS'0904BL0904I0'
p1018
F0.14149039278339715
sS'1500O41500O5'
p1019
F0.20857985771978882
sS'1115O51115O6'
p1020
F0.2085798577197891
sS'0215BR0315BL'
p1021
F0.5
sS'1305BL1305TL'
p1022
F0.5
sS'0008BL0008TL'
p1023
F0.5
sS'0008BL0009TL'
p1024
F0.5
sS'1218I01319TR'
p1025
F0.14149039278339715
sS'0703TL0703TR'
p1026
F0.5
sS'1503BR1504TR'
p1027
F0.5
sS'1218O81218O9'
p1028
F0.20857985771978885
sS'1203BR1303BL'
p1029
F0.5
sS'0013BL0014TL'
p1030
F0.5
sS'1915BL1916TL'
p1031
F0.5
sS'1907BR1908TR'
p1032
F0.5
sS'0408TL0408TR'
p1033
F0.5
sS'1112TR1212TL'
p1034
F0.5
sS'0000I00000I1'
p1035
F0.12946335996400649
sS'0206BL0206TL'
p1036
F0.5
sS'0002BL0003TL'
p1037
F0.5
sS'1908BR1909TR'
p1038
F0.5
sS'1218O91319BR'
p1039
F0.34895721515469036
sS'0015BL0015BR'
p1040
F0.5
sS'0208TR0308TL'
p1041
F0.5
sS'0319TR0419TL'
p1042
F0.5
sS'1713BR1713TR'
p1043
F0.5
sS'1217BR1218TR'
p1044
F0.5
sS'0414O00414O1'
p1045
F0.20857985771978804
sS'0208BR0209TR'
p1046
F0.5
sS'0011BR0012TR'
p1047
F0.5
sS'0500TL0500TR'
p1048
F0.5
sS'0502BL0503TL'
p1049
F0.5
sS'1718BL1719TL'
p1050
F0.5
sS'1612TL1612TR'
p1051
F0.5
sS'0006BL0006TL'
p1052
F0.5
sS'0016BR0016TR'
p1053
F0.5
sS'0203I00203I1'
p1054
F0.12946335996400674
sS'1000I31000I4'
p1055
F0.12946335996400685
sS'1502BR1502TR'
p1056
F0.5
sS'1305BL1305BR'
p1057
F0.5
sS'1305BL1306TL'
p1058
F0.5
sS'1115I51115I6'
p1059
F0.12946335996400665
sS'0000I10000I2'
p1060
F0.1294633599640064
sS'1500O11500O2'
p1061
F0.20857985771978876
s.