(dp0
S'0413BL'
p1
(lp2
F0.25
aF0.75
a(lp3
S'0413BR'
p4
aasS'1319BR'
p5
(lp6
F0.75
aF0.75
a(lp7
S'1419BL'
p8
aasS'1008BR'
p9
(lp10
F0.75
aF0.75
a(lp11
S'1008TR'
p12
aasS'0408BR'
p13
(lp14
F0.75
aF0.75
a(lp15
S'0508BL'
p16
aasS'1115O6'
p17
(lp18
F1.1742126797933126
aF0.49856865382568438
a(lp19
S'1115O7'
p20
aasS'0300BR'
p21
(lp22
F0.75
aF0.75
a(lp23
S'0400BL'
p24
aasS'0002BR'
p25
(lp26
F0.75
aF0.75
a(lp27
S'0002TR'
p28
aasS'0300BL'
p29
(lp30
F0.25
aF0.75
a(lp31
S'0300BR'
p32
aasS'0408BL'
p33
(lp34
F0.25
aF0.75
a(lp35
S'0408BR'
p36
aasS'0419TL'
p37
(lp38
F0.25
aF0.25
a(lp39
S'0319TR'
p40
aasS'1008BL'
p41
(lp42
F0.25
aF0.75
a(lp43
S'1009TL'
p44
aasS'0413BR'
p45
(lp46
F0.75
aF0.75
a(lp47
S'0513BL'
p48
aasS'1010TR'
p49
(lp50
F0.75
aF0.25
a(lp51
S'1009BR'
p52
aasS'0900TR'
p53
(lp54
F0.75
aF0.25
a(lp55
S'0900TL'
p56
aasS'1707TR'
p57
(lp58
F0.75
aF0.25
a(lp59
S'1706BR'
p60
aasS'0501TR'
p61
(lp62
F0.75
aF0.25
a(lp63
S'0500BR'
p64
aasS'0212O9'
p65
(lp66
F1.4014098788013858
aF1.7339979560289076
a(lp67
S'0313BR'
p68
aasS'1115O5'
p69
(lp70
F1.3349262223426994
aF0.6315224589146462
a(lp71
S'1115O6'
p72
aasS'1910BR'
p73
(lp74
F0.75
aF0.75
a(lp75
S'1910TR'
p76
aasS'1305BL'
p77
(lp78
F0.25
aF0.75
a(lp79
S'1305BR'
p80
aS'1306TL'
p81
aS'1305CC'
p82
aasS'1907TR'
p83
(lp84
F0.75
aF0.25
a(lp85
S'1906BR'
p86
aasS'0607I8'
p87
(lp88
F0.67366226197677759
aF1.1854859757892817
a(lp89
S'0607I9'
p90
aasS'0607I9'
p91
(lp92
F0.5487279841817051
aF1.2194298678023312
a(lp93
S'0608TL'
p94
aasS'1305BR'
p95
(lp96
F0.75
aF0.75
a(lp97
S'1405BL'
p98
aS'1305TR'
p99
aS'1305CC'
p100
aasS'1103CC'
p101
(lp102
F0.5
aF0.5
a(lp103
S'1103TL'
p104
aS'1103TR'
p105
aS'1103BL'
p106
aS'1103BR'
p107
aasS'0607I0'
p108
(lp109
F1.234375
aF0.390625
a(lp110
S'0607I1'
p111
aasS'0607I1'
p112
(lp113
F1.2244426968455289
aF0.51970679936465713
a(lp114
S'0607I2'
p115
aasS'0501TL'
p116
(lp117
F0.25
aF0.25
a(lp118
S'0501BL'
p119
aasS'0607I3'
p120
(lp121
F1.1463817977020048
aF0.76578593243728266
a(lp122
S'0607I4'
p123
aasS'0607I4'
p124
(lp125
F1.0800910079702648
aF0.87698976676826312
a(lp126
S'0607I5'
p127
aasS'0607I5'
p128
(lp129
F0.99756795653573693
aF0.97674300007477899
a(lp130
S'0607I6'
p131
aasS'0607I6'
p132
(lp133
F0.90075550316512876
aF1.0626971183329157
a(lp134
S'0607I7'
p135
aasS'0900TL'
p136
(lp137
F0.25
aF0.25
a(lp138
S'0800TR'
p139
aasS'1915TR'
p140
(lp141
F0.75
aF0.25
a(lp142
S'1914BR'
p143
aasS'1212BL'
p144
(lp145
F0.25
aF0.75
a(lp146
S'1212BR'
p147
aasS'0511BL'
p148
(lp149
F0.25
aF0.75
a(lp150
S'0512TL'
p151
aasS'1305TR'
p152
(lp153
F0.75
aF0.25
a(lp154
S'1305TL'
p155
aS'1304BR'
p156
aS'1305CC'
p157
aasS'1115O4'
p158
(lp159
F1.473407857314142
aF0.78749807823395934
a(lp160
S'1115O5'
p161
aasS'1312BL'
p162
(lp163
F0.25
aF0.75
a(lp164
S'1312BR'
p165
aS'1312CC'
p166
aasS'1502BR'
p167
(lp168
F0.75
aF0.75
a(lp169
S'1502TR'
p170
aasS'1905TR'
p171
(lp172
F0.75
aF0.25
a(lp173
S'1904BR'
p174
aasS'1502BL'
p175
(lp176
F0.25
aF0.75
a(lp177
S'1503TL'
p178
aasS'1905TL'
p179
(lp180
F0.25
aF0.25
a(lp181
S'1905BL'
p182
aasS'0000O9'
p183
(lp184
F0.26600204397109239
aF1.4014098788013856
a(lp185
S'0001BL'
p186
aasS'0000O8'
p187
(lp188
F0.3136314359689627
aF1.1983409297611147
a(lp189
S'0000O9'
p190
aasS'0414I2'
p191
(lp192
F1.194879625950299
aF0.64574959532068754
a(lp193
S'0414I3'
p194
aasS'0414I3'
p195
(lp196
F1.1463817977020048
aF0.76578593243728266
a(lp197
S'0414I4'
p198
aasS'0414I0'
p199
(lp200
F1.234375
aF0.390625
a(lp201
S'0414I1'
p202
aasS'1312BR'
p203
(lp204
F0.75
aF0.75
a(lp205
S'1412BL'
p206
aS'1312CC'
p207
aasS'0000O3'
p208
(lp209
F0.96282334079509513
aF0.41360272125944286
a(lp210
S'0000O4'
p211
aasS'0000O2'
p212
(lp213
F1.1533705223707469
aF0.32876565011726866
a(lp214
S'0000O3'
p215
aasS'0000O1'
p216
(lp217
F1.3546535254850305
aF0.27407826854068884
a(lp218
S'0000O2'
p219
aasS'0000O0'
p220
(lp221
F1.561933496670038
aF0.2508280945209167
a(lp222
S'0000O1'
p223
aasS'0000O7'
p224
(lp225
F0.39176682592454815
aF1.0049490532954892
a(lp226
S'0000O8'
p227
aasS'0000O6'
p228
(lp229
F0.4985686538256846
aF0.82578732020668744
a(lp230
S'0000O7'
p231
aasS'0000O5'
p232
(lp233
F0.6315224589146462
aF0.66507377765730047
a(lp234
S'0000O6'
p235
aasS'0000O4'
p236
(lp237
F0.78749807823395956
aF0.52659214268585797
a(lp238
S'0000O5'
p239
aasS'1115I1'
p240
(lp241
F0.51970679936465713
aF0.77555730315447113
a(lp242
S'1115I2'
p243
aasS'1713TL'
p244
(lp245
F0.25
aF0.25
a(lp246
S'1713BL'
p247
aasS'1015TL'
p248
(lp249
F0.25
aF0.25
a(lp250
S'0915TR'
p251
aasS'1906TL'
p252
(lp253
F0.25
aF0.25
a(lp254
S'1906BL'
p255
aasS'0717TL'
p256
(lp257
F0.25
aF0.25
a(lp258
S'0717BL'
p259
aasS'1009BR'
p260
(lp261
F0.75
aF0.75
a(lp262
S'1009TR'
p263
aasS'1908TL'
p264
(lp265
F0.25
aF0.25
a(lp266
S'1908BL'
p267
aasS'0513CC'
p268
(lp269
F0.5
aF0.5
a(lp270
S'0513TL'
p271
aS'0513TR'
p272
aS'0513BL'
p273
aS'0513BR'
p274
aasS'1010TL'
p275
(lp276
F0.25
aF0.25
a(lp277
S'1010BL'
p278
aasS'1908TR'
p279
(lp280
F0.75
aF0.25
a(lp281
S'1907BR'
p282
aasS'1009BL'
p283
(lp284
F0.25
aF0.75
a(lp285
S'1010TL'
p286
aasS'0618O7'
p287
(lp288
F1.6082331740754519
aF0.99505094670451089
a(lp289
S'0618O8'
p290
aasS'0100TR'
p291
(lp292
F0.75
aF0.25
a(lp293
S'0000O0'
p294
aasS'1708TL'
p295
(lp296
F0.25
aF0.25
a(lp297
S'1708BL'
p298
aasS'0717TR'
p299
(lp300
F0.75
aF0.25
a(lp301
S'0716BR'
p302
aasS'1713TR'
p303
(lp304
F0.75
aF0.25
a(lp305
S'1712BR'
p306
aasS'1015TR'
p307
(lp308
F0.75
aF0.25
a(lp309
S'1015TL'
p310
aasS'1419TL'
p311
(lp312
F0.25
aF0.25
a(lp313
S'1319TR'
p314
aasS'1306TR'
p315
(lp316
F0.75
aF0.25
a(lp317
S'1305BR'
p318
aasS'1818O9'
p319
(lp320
F1.7339979560289076
aF0.59859012119861421
a(lp321
S'1918TR'
p322
aasS'1908BR'
p323
(lp324
F0.75
aF0.75
a(lp325
S'1908TR'
p326
aasS'0014TR'
p327
(lp328
F0.75
aF0.25
a(lp329
S'0013BR'
p330
aasS'0013BL'
p331
(lp332
F0.25
aF0.75
a(lp333
S'0014TL'
p334
aasS'1916TL'
p335
(lp336
F0.25
aF0.25
a(lp337
S'1916BL'
p338
aasS'1503CC'
p339
(lp340
F0.5
aF0.5
a(lp341
S'1503TL'
p342
aS'1503TR'
p343
aS'1503BL'
p344
aS'1503BR'
p345
aasS'0013BR'
p346
(lp347
F0.75
aF0.75
a(lp348
S'0013TR'
p349
aasS'1015BL'
p350
(lp351
F0.25
aF0.75
a(lp352
S'1015BR'
p353
aasS'1908BL'
p354
(lp355
F0.25
aF0.75
a(lp356
S'1909TL'
p357
aasS'1306TL'
p358
(lp359
F0.25
aF0.25
a(lp360
S'1306BL'
p361
aasS'1218O0'
p362
(lp363
F0.2508280945209167
aF0.4380665033299625
a(lp364
S'1218O1'
p365
aasS'1218O3'
p366
(lp367
F0.41360272125944286
aF1.0371766592049048
a(lp368
S'1218O4'
p369
aasS'1218O2'
p370
(lp371
F0.32876565011726866
aF0.84662947762925311
a(lp372
S'1218O3'
p373
aasS'1218O5'
p374
(lp375
F0.66507377765730047
aF1.3684775410853538
a(lp376
S'1218O6'
p377
aasS'1218O4'
p378
(lp379
F0.52659214268585797
aF1.2125019217660404
a(lp380
S'1218O5'
p381
aasS'1218O7'
p382
(lp383
F1.004949053295489
aF1.6082331740754519
a(lp384
S'1218O8'
p385
aasS'1218O6'
p386
(lp387
F0.82578732020668744
aF1.5014313461743154
a(lp388
S'1218O7'
p389
aasS'1913TL'
p390
(lp391
F0.25
aF0.25
a(lp392
S'1913BL'
p393
aasS'0015BR'
p394
(lp395
F0.75
aF0.75
a(lp396
S'0115BL'
p397
aS'0015TR'
p398
aasS'0215TL'
p399
(lp400
F0.25
aF0.25
a(lp401
S'0115TR'
p402
aasS'0502BL'
p403
(lp404
F0.25
aF0.75
a(lp405
S'0503TL'
p406
aasS'0115BL'
p407
(lp408
F0.25
aF0.75
a(lp409
S'0115BR'
p410
aasS'0115BR'
p411
(lp412
F0.75
aF0.75
a(lp413
S'0215BL'
p414
aasS'0502BR'
p415
(lp416
F0.75
aF0.75
a(lp417
S'0502TR'
p418
aasS'0015BL'
p419
(lp420
F0.25
aF0.75
a(lp421
S'0015BR'
p422
aS'0016TL'
p423
aasS'1913TR'
p424
(lp425
F0.75
aF0.25
a(lp426
S'1912BR'
p427
aasS'1419TR'
p428
(lp429
F0.75
aF0.25
a(lp430
S'1419TL'
p431
aasS'0010TR'
p432
(lp433
F0.75
aF0.25
a(lp434
S'0009BR'
p435
aasS'0717BR'
p436
(lp437
F0.75
aF0.75
a(lp438
S'0717TR'
p439
aasS'0315BR'
p440
(lp441
F0.75
aF0.75
a(lp442
S'0415BL'
p443
aasS'0613O5'
p444
(lp445
F1.3349262223426994
aF0.6315224589146462
a(lp446
S'0613O6'
p447
aasS'0613O4'
p448
(lp449
F1.473407857314142
aF0.78749807823395934
a(lp450
S'0613O5'
p451
aasS'0508BR'
p452
(lp453
F0.75
aF0.75
a(lp454
S'0608BL'
p455
aS'0508CC'
p456
aasS'0613O6'
p457
(lp458
F1.1742126797933126
aF0.49856865382568438
a(lp459
S'0613O7'
p460
aasS'0613O1'
p461
(lp462
F1.7259217314593112
aF1.3546535254850305
a(lp463
S'0613O2'
p464
aasS'0613O0'
p465
(lp466
F1.7491719054790833
aF1.561933496670038
a(lp467
S'0613O1'
p468
aasS'0704I8'
p469
(lp470
F1.3263377380232222
aF0.81451402421071839
a(lp471
S'0704I9'
p472
aasS'0704I9'
p473
(lp474
F1.4512720158182948
aF0.78057013219766891
a(lp475
S'0804BR'
p476
aasS'0704I6'
p477
(lp478
F1.0992444968348716
aF0.9373028816670842
a(lp479
S'0704I7'
p480
aasS'0704I7'
p481
(lp482
F1.2080670735969556
aF0.86717151664379222
a(lp483
S'0704I8'
p484
aasS'0704I4'
p485
(lp486
F0.9199089920297352
aF1.1230102332317369
a(lp487
S'0704I5'
p488
aasS'0704I5'
p489
(lp490
F1.0024320434642631
aF1.023256999925221
a(lp491
S'0704I6'
p492
aasS'0704I2'
p493
(lp494
F0.80512037404970094
aF1.3542504046793125
a(lp495
S'0704I3'
p496
aasS'0704I3'
p497
(lp498
F0.85361820229799545
aF1.2342140675627173
a(lp499
S'0704I4'
p500
aasS'0704I0'
p501
(lp502
F0.765625
aF1.609375
a(lp503
S'0704I1'
p504
aasS'0704I1'
p505
(lp506
F0.77555730315447113
aF1.4802932006353429
a(lp507
S'0704I2'
p508
aasS'0205BR'
p509
(lp510
F0.75
aF0.75
a(lp511
S'0205TR'
p512
aasS'1612BL'
p513
(lp514
F0.25
aF0.75
a(lp515
S'1612BR'
p516
aasS'0300TL'
p517
(lp518
F0.25
aF0.25
a(lp519
S'0200TR'
p520
aasS'0514TR'
p521
(lp522
F0.75
aF0.25
a(lp523
S'0513BR'
p524
aasS'1007BL'
p525
(lp526
F0.25
aF0.75
a(lp527
S'1008TL'
p528
aasS'0510TR'
p529
(lp530
F0.75
aF0.25
a(lp531
S'0509BR'
p532
aasS'0511TR'
p533
(lp534
F0.75
aF0.25
a(lp535
S'0510BR'
p536
aasS'1704BL'
p537
(lp538
F0.25
aF0.75
a(lp539
S'1705TL'
p540
aasS'1600TR'
p541
(lp542
F0.75
aF0.25
a(lp543
S'1500O0'
p544
aasS'1715TL'
p545
(lp546
F0.25
aF0.25
a(lp547
S'1715BL'
p548
aasS'1704BR'
p549
(lp550
F0.75
aF0.75
a(lp551
S'1603O0'
p552
aasS'1008TR'
p553
(lp554
F0.75
aF0.25
a(lp555
S'1007BR'
p556
aasS'0510TL'
p557
(lp558
F0.25
aF0.25
a(lp559
S'0510BL'
p560
aasS'0511TL'
p561
(lp562
F0.25
aF0.25
a(lp563
S'0511BL'
p564
aasS'1007BR'
p565
(lp566
F0.75
aF0.75
a(lp567
S'1007TR'
p568
aasS'1612BR'
p569
(lp570
F0.75
aF0.75
a(lp571
S'1712BL'
p572
aasS'0300TR'
p573
(lp574
F0.75
aF0.25
a(lp575
S'0300TL'
p576
aasS'0205BL'
p577
(lp578
F0.25
aF0.75
a(lp579
S'0206TL'
p580
aasS'0212I7'
p581
(lp582
F0.86717151664379211
aF0.79193292640304436
a(lp583
S'0212I8'
p584
aasS'1903TR'
p585
(lp586
F0.75
aF0.25
a(lp587
S'1902BR'
p588
aasS'1719BR'
p589
(lp590
F0.75
aF0.75
a(lp591
S'1819BL'
p592
aS'1719CC'
p593
aasS'0308TL'
p594
(lp595
F0.25
aF0.25
a(lp596
S'0208TR'
p597
aasS'0715BL'
p598
(lp599
F0.25
aF0.75
a(lp600
S'0715BR'
p601
aS'0716TL'
p602
aasS'1719BL'
p603
(lp604
F0.25
aF0.75
a(lp605
S'1719BR'
p606
aS'1719CC'
p607
aasS'1419BR'
p608
(lp609
F0.75
aF0.75
a(lp610
S'1519BL'
p611
aasS'1903TL'
p612
(lp613
F0.25
aF0.25
a(lp614
S'1903BL'
p615
aasS'0510BR'
p616
(lp617
F0.75
aF0.75
a(lp618
S'0510TR'
p619
aasS'1405TL'
p620
(lp621
F0.25
aF0.25
a(lp622
S'1305TR'
p623
aasS'0013TR'
p624
(lp625
F0.75
aF0.25
a(lp626
S'0012BR'
p627
aasS'1716BL'
p628
(lp629
F0.25
aF0.75
a(lp630
S'1717TL'
p631
aasS'1819BL'
p632
(lp633
F0.25
aF0.75
a(lp634
S'1818O0'
p635
aasS'1917BL'
p636
(lp637
F0.25
aF0.75
a(lp638
S'1918TL'
p639
aasS'0706BR'
p640
(lp641
F0.75
aF0.75
a(lp642
S'0706TR'
p643
aasS'1917BR'
p644
(lp645
F0.75
aF0.75
a(lp646
S'1917TR'
p647
aasS'0706BL'
p648
(lp649
F0.25
aF0.75
a(lp650
S'0707TL'
p651
aasS'0308TR'
p652
(lp653
F0.75
aF0.25
a(lp654
S'0308TL'
p655
aasS'0013TL'
p656
(lp657
F0.25
aF0.25
a(lp658
S'0013BL'
p659
aasS'0512BL'
p660
(lp661
F0.25
aF0.75
a(lp662
S'0513TL'
p663
aasS'0208TR'
p664
(lp665
F0.75
aF0.25
a(lp666
S'0207BR'
p667
aS'0208CC'
p668
aasS'0319TL'
p669
(lp670
F0.25
aF0.25
a(lp671
S'0219TR'
p672
aasS'0715CC'
p673
(lp674
F0.5
aF0.5
a(lp675
S'0715TR'
p676
aS'0715BL'
p677
aS'0715BR'
p678
aasS'0510BL'
p679
(lp680
F0.25
aF0.75
a(lp681
S'0511TL'
p682
aasS'1910BL'
p683
(lp684
F0.25
aF0.75
a(lp685
S'1911TL'
p686
aasS'1917TL'
p687
(lp688
F0.25
aF0.25
a(lp689
S'1917BL'
p690
aasS'0001BL'
p691
(lp692
F0.25
aF0.75
a(lp693
S'0002TL'
p694
aasS'0509TL'
p695
(lp696
F0.25
aF0.25
a(lp697
S'0509BL'
p698
aasS'1612TL'
p699
(lp700
F0.25
aF0.25
a(lp701
S'1512TR'
p702
aasS'1612TR'
p703
(lp704
F0.75
aF0.25
a(lp705
S'1612TL'
p706
aasS'1015BR'
p707
(lp708
F0.75
aF0.75
a(lp709
S'1115BL'
p710
aasS'0208BL'
p711
(lp712
F0.25
aF0.75
a(lp713
S'0208BR'
p714
aS'0209TL'
p715
aasS'0001BR'
p716
(lp717
F0.75
aF0.75
a(lp718
S'0000I0'
p719
aasS'1917TR'
p720
(lp721
F0.75
aF0.25
a(lp722
S'1916BR'
p723
aasS'1600BR'
p724
(lp725
F0.75
aF0.75
a(lp726
S'1700BL'
p727
aasS'0607I2'
p728
(lp729
F1.194879625950299
aF0.64574959532068754
a(lp730
S'0607I3'
p731
aasS'0004BL'
p732
(lp733
F0.25
aF0.75
a(lp734
S'0005TL'
p735
aasS'0400TL'
p736
(lp737
F0.25
aF0.25
a(lp738
S'0300TR'
p739
aasS'0804TR'
p740
(lp741
F0.75
aF0.25
a(lp742
S'0704O0'
p743
aasS'0303BR'
p744
(lp745
F0.75
aF0.75
a(lp746
S'0403BL'
p747
aasS'0603TL'
p748
(lp749
F0.25
aF0.25
a(lp750
S'0503TR'
p751
aasS'1218TR'
p752
(lp753
F0.75
aF0.25
a(lp754
S'1217BR'
p755
aasS'1707TL'
p756
(lp757
F0.25
aF0.25
a(lp758
S'1707BL'
p759
aasS'1218TL'
p760
(lp761
F0.25
aF0.25
a(lp762
S'1218O0'
p763
aasS'0018O2'
p764
(lp765
F0.32876565011726866
aF0.84662947762925311
a(lp766
S'0018O3'
p767
aasS'0603TR'
p768
(lp769
F0.75
aF0.25
a(lp770
S'0603TL'
p771
aasS'0607I7'
p772
(lp773
F0.79193292640304458
aF1.1328284833562079
a(lp774
S'0607I8'
p775
aasS'0400TR'
p776
(lp777
F0.75
aF0.25
a(lp778
S'0400TL'
p779
aasS'0613O8'
p780
(lp781
F0.80165907023888583
aF0.3136314359689627
a(lp782
S'0613O9'
p783
aasS'0004BR'
p784
(lp785
F0.75
aF0.75
a(lp786
S'0004TR'
p787
aasS'1904BL'
p788
(lp789
F0.25
aF0.75
a(lp790
S'1905TL'
p791
aasS'0603BR'
p792
(lp793
F0.75
aF0.75
a(lp794
S'0703BL'
p795
aasS'1205TR'
p796
(lp797
F0.75
aF0.25
a(lp798
S'1104I0'
p799
aasS'0501BR'
p800
(lp801
F0.75
aF0.75
a(lp802
S'0501TR'
p803
aasS'1905BR'
p804
(lp805
F0.75
aF0.75
a(lp806
S'1905TR'
p807
aasS'1712CC'
p808
(lp809
F0.5
aF0.5
a(lp810
S'1712TL'
p811
aS'1712TR'
p812
aS'1712BL'
p813
aasS'0208CC'
p814
(lp815
F0.5
aF0.5
a(lp816
S'0208TR'
p817
aS'0208BL'
p818
aS'0208BR'
p819
aasS'1405BL'
p820
(lp821
F0.25
aF0.75
a(lp822
S'1404O0'
p823
aasS'1312TL'
p824
(lp825
F0.25
aF0.25
a(lp826
S'1212TR'
p827
aS'1312CC'
p828
aasS'0208BR'
p829
(lp830
F0.75
aF0.75
a(lp831
S'0308BL'
p832
aS'0208TR'
p833
aasS'1312TR'
p834
(lp835
F0.75
aF0.25
a(lp836
S'1312TL'
p837
aS'1311BR'
p838
aasS'0212I4'
p839
(lp840
F1.1230102332317369
aF1.0800910079702648
a(lp841
S'0212I5'
p842
aasS'1905BL'
p843
(lp844
F0.25
aF0.75
a(lp845
S'1906TL'
p846
aasS'0501BL'
p847
(lp848
F0.25
aF0.75
a(lp849
S'0502TL'
p850
aasS'1904BR'
p851
(lp852
F0.75
aF0.75
a(lp853
S'1904TR'
p854
aasS'0603BL'
p855
(lp856
F0.25
aF0.75
a(lp857
S'0603BR'
p858
aasS'1217BL'
p859
(lp860
F0.25
aF0.75
a(lp861
S'1218TL'
p862
aasS'0303TR'
p863
(lp864
F0.75
aF0.25
a(lp865
S'0203O0'
p866
aasS'0618I8'
p867
(lp868
F0.67366226197677759
aF1.1854859757892817
a(lp869
S'0618I9'
p870
aasS'0618O5'
p871
(lp872
F1.3684775410853538
aF1.3349262223426994
a(lp873
S'0618O6'
p874
aasS'0618I9'
p875
(lp876
F0.5487279841817051
aF1.2194298678023312
a(lp877
S'0619TL'
p878
aasS'1710TL'
p879
(lp880
F0.25
aF0.25
a(lp881
S'1710BL'
p882
aasS'0016BL'
p883
(lp884
F0.25
aF0.75
a(lp885
S'0017TL'
p886
aasS'0700TR'
p887
(lp888
F0.75
aF0.25
a(lp889
S'0700TL'
p890
aasS'0700TL'
p891
(lp892
F0.25
aF0.25
a(lp893
S'0600TR'
p894
aasS'0016BR'
p895
(lp896
F0.75
aF0.75
a(lp897
S'0016TR'
p898
aasS'1710TR'
p899
(lp900
F0.75
aF0.25
a(lp901
S'1709BR'
p902
aasS'0119TR'
p903
(lp904
F0.75
aF0.25
a(lp905
S'0018I0'
p906
aasS'1713BL'
p907
(lp908
F0.25
aF0.75
a(lp909
S'1714TL'
p910
aasS'0115TR'
p911
(lp912
F0.75
aF0.25
a(lp913
S'0115TL'
p914
aasS'0016TR'
p915
(lp916
F0.75
aF0.25
a(lp917
S'0015BR'
p918
aasS'1708BR'
p919
(lp920
F0.75
aF0.75
a(lp921
S'1708TR'
p922
aasS'0007TL'
p923
(lp924
F0.25
aF0.25
a(lp925
S'0007BL'
p926
aasS'1902BR'
p927
(lp928
F0.75
aF0.75
a(lp929
S'1902TR'
p930
aasS'0206BR'
p931
(lp932
F0.75
aF0.75
a(lp933
S'0206TR'
p934
aasS'0206BL'
p935
(lp936
F0.25
aF0.75
a(lp937
S'0207TL'
p938
aasS'1706BR'
p939
(lp940
F0.75
aF0.75
a(lp941
S'1706TR'
p942
aasS'0219TR'
p943
(lp944
F0.75
aF0.25
a(lp945
S'0219TL'
p946
aasS'1902BL'
p947
(lp948
F0.25
aF0.75
a(lp949
S'1903TL'
p950
aasS'1103BL'
p951
(lp952
F0.25
aF0.75
a(lp953
S'1103BR'
p954
aS'1104TL'
p955
aS'1103CC'
p956
aasS'1708BL'
p957
(lp958
F0.25
aF0.75
a(lp959
S'1709TL'
p960
aasS'0319TR'
p961
(lp962
F0.75
aF0.25
a(lp963
S'0319TL'
p964
aasS'0016TL'
p965
(lp966
F0.25
aF0.25
a(lp967
S'0016BL'
p968
aasS'0115TL'
p969
(lp970
F0.25
aF0.25
a(lp971
S'0015TR'
p972
aasS'1713BR'
p973
(lp974
F0.75
aF0.75
a(lp975
S'1713TR'
p976
aasS'0414I6'
p977
(lp978
F0.90075550316512876
aF1.0626971183329157
a(lp979
S'0414I7'
p980
aasS'0618I3'
p981
(lp982
F1.1463817977020048
aF0.76578593243728266
a(lp983
S'0618I4'
p984
aasS'0508TR'
p985
(lp986
F0.75
aF0.25
a(lp987
S'0508TL'
p988
aS'0508CC'
p989
aasS'0414I7'
p990
(lp991
F0.79193292640304458
aF1.1328284833562079
a(lp992
S'0414I8'
p993
aasS'0703BL'
p994
(lp995
F0.25
aF0.75
a(lp996
S'0703BR'
p997
aasS'1005BR'
p998
(lp999
F0.75
aF0.75
a(lp1000
S'0904O0'
p1001
aasS'0210TL'
p1002
(lp1003
F0.25
aF0.25
a(lp1004
S'0210BL'
p1005
aasS'0414I4'
p1006
(lp1007
F1.0800910079702648
aF0.87698976676826312
a(lp1008
S'0414I5'
p1009
aasS'0618I5'
p1010
(lp1011
F0.99756795653573693
aF0.97674300007477899
a(lp1012
S'0618I6'
p1013
aasS'0212I2'
p1014
(lp1015
F1.3542504046793125
aF1.194879625950299
a(lp1016
S'0212I3'
p1017
aasS'0212I3'
p1018
(lp1019
F1.2342140675627173
aF1.1463817977020045
a(lp1020
S'0212I4'
p1021
aasS'0212I0'
p1022
(lp1023
F1.609375
aF1.234375
a(lp1024
S'0212I1'
p1025
aasS'0212I1'
p1026
(lp1027
F1.4802932006353429
aF1.2244426968455289
a(lp1028
S'0212I2'
p1029
aasS'0212I6'
p1030
(lp1031
F0.9373028816670842
aF0.90075550316512853
a(lp1032
S'0212I7'
p1033
aasS'0210TR'
p1034
(lp1035
F0.75
aF0.25
a(lp1036
S'0209BR'
p1037
aasS'1603I9'
p1038
(lp1039
F1.2194298678023312
aF1.4512720158182948
a(lp1040
S'1704BL'
p1041
aasS'1603I8'
p1042
(lp1043
F1.1854859757892815
aF1.3263377380232222
a(lp1044
S'1603I9'
p1045
aasS'1603I7'
p1046
(lp1047
F1.1328284833562079
aF1.2080670735969554
a(lp1048
S'1603I8'
p1049
aasS'1603I6'
p1050
(lp1051
F1.0626971183329159
aF1.0992444968348714
a(lp1052
S'1603I7'
p1053
aasS'1603I5'
p1054
(lp1055
F0.97674300007477899
aF1.0024320434642631
a(lp1056
S'1603I6'
p1057
aasS'1603I4'
p1058
(lp1059
F0.8769897667682629
aF0.9199089920297352
a(lp1060
S'1603I5'
p1061
aasS'1603I3'
p1062
(lp1063
F0.76578593243728221
aF0.85361820229799523
a(lp1064
S'1603I4'
p1065
aasS'1603I2'
p1066
(lp1067
F0.64574959532068776
aF0.80512037404970105
a(lp1068
S'1603I3'
p1069
aasS'1603I1'
p1070
(lp1071
F0.51970679936465713
aF0.77555730315447113
a(lp1072
S'1603I2'
p1073
aasS'1603I0'
p1074
(lp1075
F0.39062499999999983
aF0.765625
a(lp1076
S'1603I1'
p1077
aasS'1902TR'
p1078
(lp1079
F0.75
aF0.25
a(lp1080
S'1901BR'
p1081
aasS'1706TR'
p1082
(lp1083
F0.75
aF0.25
a(lp1084
S'1705BR'
p1085
aasS'0210BR'
p1086
(lp1087
F0.75
aF0.75
a(lp1088
S'0210TR'
p1089
aasS'0015TR'
p1090
(lp1091
F0.75
aF0.25
a(lp1092
S'0014BR'
p1093
aS'0015CC'
p1094
aasS'1712TR'
p1095
(lp1096
F0.75
aF0.25
a(lp1097
S'1711BR'
p1098
aasS'0414I1'
p1099
(lp1100
F1.2244426968455289
aF0.51970679936465713
a(lp1101
S'0414I2'
p1102
aasS'0815BR'
p1103
(lp1104
F0.75
aF0.75
a(lp1105
S'0915BL'
p1106
aasS'1914BR'
p1107
(lp1108
F0.75
aF0.75
a(lp1109
S'1914TR'
p1110
aasS'1914BL'
p1111
(lp1112
F0.25
aF0.75
a(lp1113
S'1915TL'
p1114
aasS'0815BL'
p1115
(lp1116
F0.25
aF0.75
a(lp1117
S'0815BR'
p1118
aasS'0519BR'
p1119
(lp1120
F0.75
aF0.75
a(lp1121
S'0619BL'
p1122
aasS'1404I8'
p1123
(lp1124
F0.67366226197677759
aF1.1854859757892817
a(lp1125
S'1404I9'
p1126
aasS'1404I9'
p1127
(lp1128
F0.5487279841817051
aF1.2194298678023312
a(lp1129
S'1405TL'
p1130
aasS'1404I6'
p1131
(lp1132
F0.90075550316512876
aF1.0626971183329157
a(lp1133
S'1404I7'
p1134
aasS'1404I7'
p1135
(lp1136
F0.79193292640304458
aF1.1328284833562079
a(lp1137
S'1404I8'
p1138
aasS'1404I4'
p1139
(lp1140
F1.0800910079702648
aF0.87698976676826312
a(lp1141
S'1404I5'
p1142
aasS'1404I5'
p1143
(lp1144
F0.99756795653573693
aF0.97674300007477899
a(lp1145
S'1404I6'
p1146
aasS'1404I2'
p1147
(lp1148
F1.194879625950299
aF0.64574959532068754
a(lp1149
S'1404I3'
p1150
aasS'1404I3'
p1151
(lp1152
F1.1463817977020048
aF0.76578593243728266
a(lp1153
S'1404I4'
p1154
aasS'1902TL'
p1155
(lp1156
F0.25
aF0.25
a(lp1157
S'1902BL'
p1158
aasS'1404I1'
p1159
(lp1160
F1.2244426968455289
aF0.51970679936465713
a(lp1161
S'1404I2'
p1162
aasS'0513BL'
p1163
(lp1164
F0.25
aF0.75
a(lp1165
S'0513BR'
p1166
aS'0514TL'
p1167
aS'0513CC'
p1168
aasS'0011TR'
p1169
(lp1170
F0.75
aF0.25
a(lp1171
S'0010BR'
p1172
aasS'1305TL'
p1173
(lp1174
F0.25
aF0.25
a(lp1175
S'1205TR'
p1176
aS'1305BL'
p1177
aS'1305CC'
p1178
aasS'0716TL'
p1179
(lp1180
F0.25
aF0.25
a(lp1181
S'0716BL'
p1182
aasS'0512TL'
p1183
(lp1184
F0.25
aF0.25
a(lp1185
S'0512BL'
p1186
aasS'1003BR'
p1187
(lp1188
F0.75
aF0.75
a(lp1189
S'1103BL'
p1190
aasS'1503TL'
p1191
(lp1192
F0.25
aF0.25
a(lp1193
S'1403TR'
p1194
aS'1503BL'
p1195
aS'1503CC'
p1196
aasS'0903TL'
p1197
(lp1198
F0.25
aF0.25
a(lp1199
S'0803TR'
p1200
aasS'0511BR'
p1201
(lp1202
F0.75
aF0.75
a(lp1203
S'0511TR'
p1204
aasS'0903TR'
p1205
(lp1206
F0.75
aF0.25
a(lp1207
S'0903TL'
p1208
aasS'1003BL'
p1209
(lp1210
F0.25
aF0.75
a(lp1211
S'1003BR'
p1212
aasS'1503TR'
p1213
(lp1214
F0.75
aF0.25
a(lp1215
S'1503TL'
p1216
aS'1502BR'
p1217
aS'1503CC'
p1218
aasS'0716TR'
p1219
(lp1220
F0.75
aF0.25
a(lp1221
S'0715BR'
p1222
aasS'0414I9'
p1223
(lp1224
F0.5487279841817051
aF1.2194298678023312
a(lp1225
S'0415TL'
p1226
aasS'0011TL'
p1227
(lp1228
F0.25
aF0.25
a(lp1229
S'0011BL'
p1230
aasS'0513BR'
p1231
(lp1232
F0.75
aF0.75
a(lp1233
S'0613BL'
p1234
aS'0513TR'
p1235
aS'0513CC'
p1236
aasS'1913BL'
p1237
(lp1238
F0.25
aF0.75
a(lp1239
S'1914TL'
p1240
aasS'1819TL'
p1241
(lp1242
F0.25
aF0.25
a(lp1243
S'1719TR'
p1244
aasS'0508BL'
p1245
(lp1246
F0.25
aF0.75
a(lp1247
S'0508BR'
p1248
aS'0509TL'
p1249
aasS'1800I6'
p1250
(lp1251
F1.0626971183329159
aF1.0992444968348714
a(lp1252
S'1800I7'
p1253
aasS'1800I7'
p1254
(lp1255
F1.1328284833562079
aF1.2080670735969554
a(lp1256
S'1800I8'
p1257
aasS'1800I4'
p1258
(lp1259
F0.8769897667682629
aF0.9199089920297352
a(lp1260
S'1800I5'
p1261
aasS'1800I5'
p1262
(lp1263
F0.97674300007477899
aF1.0024320434642631
a(lp1264
S'1800I6'
p1265
aasS'1800I2'
p1266
(lp1267
F0.64574959532068776
aF0.80512037404970105
a(lp1268
S'1800I3'
p1269
aasS'1800I3'
p1270
(lp1271
F0.76578593243728221
aF0.85361820229799523
a(lp1272
S'1800I4'
p1273
aasS'1800I0'
p1274
(lp1275
F0.39062499999999983
aF0.765625
a(lp1276
S'1800I1'
p1277
aasS'1800I1'
p1278
(lp1279
F0.51970679936465713
aF0.77555730315447113
a(lp1280
S'1800I2'
p1281
aasS'1218I8'
p1282
(lp1283
F0.81451402421071839
aF0.67366226197677781
a(lp1284
S'1218I9'
p1285
aasS'1708TR'
p1286
(lp1287
F0.75
aF0.25
a(lp1288
S'1707BR'
p1289
aasS'1800I8'
p1290
(lp1291
F1.1854859757892815
aF1.3263377380232222
a(lp1292
S'1800I9'
p1293
aasS'1800I9'
p1294
(lp1295
F1.2194298678023312
aF1.4512720158182948
a(lp1296
S'1901BL'
p1297
aasS'0608BL'
p1298
(lp1299
F0.25
aF0.75
a(lp1300
S'0607O0'
p1301
aasS'0313TR'
p1302
(lp1303
F0.75
aF0.25
a(lp1304
S'0212I0'
p1305
aasS'0419BL'
p1306
(lp1307
F0.25
aF0.75
a(lp1308
S'0419BR'
p1309
aasS'1104O1'
p1310
(lp1311
F0.27407826854068884
aF0.64534647451496996
a(lp1312
S'1104O2'
p1313
aasS'1104O0'
p1314
(lp1315
F0.2508280945209167
aF0.4380665033299625
a(lp1316
S'1104O1'
p1317
aasS'1104O3'
p1318
(lp1319
F0.41360272125944286
aF1.0371766592049048
a(lp1320
S'1104O4'
p1321
aasS'1104O2'
p1322
(lp1323
F0.32876565011726866
aF0.84662947762925311
a(lp1324
S'1104O3'
p1325
aasS'1104O5'
p1326
(lp1327
F0.66507377765730047
aF1.3684775410853538
a(lp1328
S'1104O6'
p1329
aasS'1104O4'
p1330
(lp1331
F0.52659214268585797
aF1.2125019217660404
a(lp1332
S'1104O5'
p1333
aasS'1104O7'
p1334
(lp1335
F1.004949053295489
aF1.6082331740754519
a(lp1336
S'1104O8'
p1337
aasS'1104O6'
p1338
(lp1339
F0.82578732020668744
aF1.5014313461743154
a(lp1340
S'1104O7'
p1341
aasS'1104O9'
p1342
(lp1343
F1.4014098788013858
aF1.7339979560289076
a(lp1344
S'1205BR'
p1345
aasS'1104O8'
p1346
(lp1347
F1.1983409297611145
aF1.6863685640310373
a(lp1348
S'1104O9'
p1349
aasS'1115I7'
p1350
(lp1351
F1.1328284833562079
aF1.2080670735969554
a(lp1352
S'1115I8'
p1353
aasS'1115I6'
p1354
(lp1355
F1.0626971183329159
aF1.0992444968348714
a(lp1356
S'1115I7'
p1357
aasS'1412BR'
p1358
(lp1359
F0.75
aF0.75
a(lp1360
S'1512BL'
p1361
aasS'1115I0'
p1362
(lp1363
F0.39062499999999983
aF0.765625
a(lp1364
S'1115I1'
p1365
aasS'1115I3'
p1366
(lp1367
F0.76578593243728221
aF0.85361820229799523
a(lp1368
S'1115I4'
p1369
aasS'1115I2'
p1370
(lp1371
F0.64574959532068776
aF0.80512037404970105
a(lp1372
S'1115I3'
p1373
aasS'0011BL'
p1374
(lp1375
F0.25
aF0.75
a(lp1376
S'0012TL'
p1377
aasS'1307TL'
p1378
(lp1379
F0.25
aF0.25
a(lp1380
S'1307BL'
p1381
aasS'0017TL'
p1382
(lp1383
F0.25
aF0.25
a(lp1384
S'0017BL'
p1385
aasS'0716BL'
p1386
(lp1387
F0.25
aF0.75
a(lp1388
S'0717TL'
p1389
aasS'1912TR'
p1390
(lp1391
F0.75
aF0.25
a(lp1392
S'1911BR'
p1393
aasS'0716BR'
p1394
(lp1395
F0.75
aF0.75
a(lp1396
S'0716TR'
p1397
aasS'1912TL'
p1398
(lp1399
F0.25
aF0.25
a(lp1400
S'1912BL'
p1401
aasS'0414O7'
p1402
(lp1403
F1.6082331740754519
aF0.99505094670451089
a(lp1404
S'0414O8'
p1405
aasS'1307TR'
p1406
(lp1407
F0.75
aF0.25
a(lp1408
S'1306BR'
p1409
aasS'0011BR'
p1410
(lp1411
F0.75
aF0.75
a(lp1412
S'0011TR'
p1413
aasS'0519TR'
p1414
(lp1415
F0.75
aF0.25
a(lp1416
S'0519TL'
p1417
aasS'0403TL'
p1418
(lp1419
F0.25
aF0.25
a(lp1420
S'0303TR'
p1421
aasS'0915TR'
p1422
(lp1423
F0.75
aF0.25
a(lp1424
S'0915TL'
p1425
aasS'0915TL'
p1426
(lp1427
F0.25
aF0.25
a(lp1428
S'0815TR'
p1429
aasS'0403TR'
p1430
(lp1431
F0.75
aF0.25
a(lp1432
S'0403TL'
p1433
aasS'0519TL'
p1434
(lp1435
F0.25
aF0.25
a(lp1436
S'0419TR'
p1437
aasS'0400BL'
p1438
(lp1439
F0.25
aF0.75
a(lp1440
S'0400BR'
p1441
aasS'0414I5'
p1442
(lp1443
F0.99756795653573693
aF0.97674300007477899
a(lp1444
S'0414I6'
p1445
aasS'0804BR'
p1446
(lp1447
F0.75
aF0.75
a(lp1448
S'0904BL'
p1449
aasS'0500CC'
p1450
(lp1451
F0.5
aF0.5
a(lp1452
S'0500TL'
p1453
aS'0500BL'
p1454
aS'0500BR'
p1455
aasS'0211TR'
p1456
(lp1457
F0.75
aF0.25
a(lp1458
S'0210BR'
p1459
aasS'0414O9'
p1460
(lp1461
F1.7339979560289076
aF0.59859012119861421
a(lp1462
S'0514TR'
p1463
aasS'1011I0'
p1464
(lp1465
F1.609375
aF1.234375
a(lp1466
S'1011I1'
p1467
aasS'1011I1'
p1468
(lp1469
F1.4802932006353429
aF1.2244426968455289
a(lp1470
S'1011I2'
p1471
aasS'0211TL'
p1472
(lp1473
F0.25
aF0.25
a(lp1474
S'0211BL'
p1475
aasS'1011I3'
p1476
(lp1477
F1.2342140675627173
aF1.1463817977020045
a(lp1478
S'1011I4'
p1479
aasS'1011I4'
p1480
(lp1481
F1.1230102332317369
aF1.0800910079702648
a(lp1482
S'1011I5'
p1483
aasS'0503TR'
p1484
(lp1485
F0.75
aF0.25
a(lp1486
S'0503TL'
p1487
aS'0502BR'
p1488
aasS'1011I6'
p1489
(lp1490
F0.9373028816670842
aF0.90075550316512853
a(lp1491
S'1011I7'
p1492
aasS'1011I7'
p1493
(lp1494
F0.86717151664379211
aF0.79193292640304436
a(lp1495
S'1011I8'
p1496
aasS'1011I8'
p1497
(lp1498
F0.81451402421071839
aF0.67366226197677781
a(lp1499
S'1011I9'
p1500
aasS'1011I9'
p1501
(lp1502
F0.78057013219766902
aF0.54872798418170543
a(lp1503
S'1011TR'
p1504
aasS'0400BR'
p1505
(lp1506
F0.75
aF0.75
a(lp1507
S'0500BL'
p1508
aasS'0503TL'
p1509
(lp1510
F0.25
aF0.25
a(lp1511
S'0403TR'
p1512
aS'0503CC'
p1513
aasS'1005BL'
p1514
(lp1515
F0.25
aF0.75
a(lp1516
S'1006TL'
p1517
aasS'0000I9'
p1518
(lp1519
F1.4512720158182948
aF0.78057013219766891
a(lp1520
S'0100BR'
p1521
aasS'0000I8'
p1522
(lp1523
F1.3263377380232222
aF0.81451402421071839
a(lp1524
S'0000I9'
p1525
aasS'1706BL'
p1526
(lp1527
F0.25
aF0.75
a(lp1528
S'1707TL'
p1529
aasS'1103BR'
p1530
(lp1531
F0.75
aF0.75
a(lp1532
S'1203BL'
p1533
aS'1103TR'
p1534
aS'1103CC'
p1535
aasS'0000I5'
p1536
(lp1537
F1.0024320434642631
aF1.023256999925221
a(lp1538
S'0000I6'
p1539
aasS'0000I4'
p1540
(lp1541
F0.9199089920297352
aF1.1230102332317369
a(lp1542
S'0000I5'
p1543
aasS'0000I7'
p1544
(lp1545
F1.2080670735969556
aF0.86717151664379222
a(lp1546
S'0000I8'
p1547
aasS'0000I6'
p1548
(lp1549
F1.0992444968348716
aF0.9373028816670842
a(lp1550
S'0000I7'
p1551
aasS'0000I1'
p1552
(lp1553
F0.77555730315447113
aF1.4802932006353429
a(lp1554
S'0000I2'
p1555
aasS'0000I0'
p1556
(lp1557
F0.765625
aF1.609375
a(lp1558
S'0000I1'
p1559
aasS'0000I3'
p1560
(lp1561
F0.85361820229799545
aF1.2342140675627173
a(lp1562
S'0000I4'
p1563
aasS'0000I2'
p1564
(lp1565
F0.80512037404970094
aF1.3542504046793125
a(lp1566
S'0000I3'
p1567
aasS'0203I8'
p1568
(lp1569
F1.3263377380232222
aF0.81451402421071839
a(lp1570
S'0203I9'
p1571
aasS'0203I9'
p1572
(lp1573
F1.4512720158182948
aF0.78057013219766891
a(lp1574
S'0303BR'
p1575
aasS'0203I0'
p1576
(lp1577
F0.765625
aF1.609375
a(lp1578
S'0203I1'
p1579
aasS'0203I1'
p1580
(lp1581
F0.77555730315447113
aF1.4802932006353429
a(lp1582
S'0203I2'
p1583
aasS'0203I2'
p1584
(lp1585
F0.80512037404970094
aF1.3542504046793125
a(lp1586
S'0203I3'
p1587
aasS'0203I3'
p1588
(lp1589
F0.85361820229799545
aF1.2342140675627173
a(lp1590
S'0203I4'
p1591
aasS'0203I4'
p1592
(lp1593
F0.9199089920297352
aF1.1230102332317369
a(lp1594
S'0203I5'
p1595
aasS'0203I5'
p1596
(lp1597
F1.0024320434642631
aF1.023256999925221
a(lp1598
S'0203I6'
p1599
aasS'0203I6'
p1600
(lp1601
F1.0992444968348716
aF0.9373028816670842
a(lp1602
S'0203I7'
p1603
aasS'0203I7'
p1604
(lp1605
F1.2080670735969556
aF0.86717151664379222
a(lp1606
S'0203I8'
p1607
aasS'1717BL'
p1608
(lp1609
F0.25
aF0.75
a(lp1610
S'1718TL'
p1611
aasS'1800BL'
p1612
(lp1613
F0.25
aF0.75
a(lp1614
S'1800I0'
p1615
aasS'1504TL'
p1616
(lp1617
F0.25
aF0.25
a(lp1618
S'1404I0'
p1619
aasS'0007BL'
p1620
(lp1621
F0.25
aF0.75
a(lp1622
S'0008TL'
p1623
aasS'0007BR'
p1624
(lp1625
F0.75
aF0.75
a(lp1626
S'0007TR'
p1627
aasS'1504TR'
p1628
(lp1629
F0.75
aF0.25
a(lp1630
S'1503BR'
p1631
aasS'1310TR'
p1632
(lp1633
F0.75
aF0.25
a(lp1634
S'1309BR'
p1635
aasS'0119BR'
p1636
(lp1637
F0.75
aF0.75
a(lp1638
S'0219BL'
p1639
aasS'0219BR'
p1640
(lp1641
F0.75
aF0.75
a(lp1642
S'0319BL'
p1643
aasS'1916TR'
p1644
(lp1645
F0.75
aF0.25
a(lp1646
S'1915BR'
p1647
aasS'1512TL'
p1648
(lp1649
F0.25
aF0.25
a(lp1650
S'1412TR'
p1651
aasS'0613O7'
p1652
(lp1653
F0.99505094670451033
aF0.39176682592454792
a(lp1654
S'0613O8'
p1655
aasS'1717BR'
p1656
(lp1657
F0.75
aF0.75
a(lp1658
S'1717TR'
p1659
aasS'1500I7'
p1660
(lp1661
F1.2080670735969556
aF0.86717151664379222
a(lp1662
S'1500I8'
p1663
aasS'1500I6'
p1664
(lp1665
F1.0992444968348716
aF0.9373028816670842
a(lp1666
S'1500I7'
p1667
aasS'1500I5'
p1668
(lp1669
F1.0024320434642631
aF1.023256999925221
a(lp1670
S'1500I6'
p1671
aasS'1500I4'
p1672
(lp1673
F0.9199089920297352
aF1.1230102332317369
a(lp1674
S'1500I5'
p1675
aasS'1500I3'
p1676
(lp1677
F0.85361820229799545
aF1.2342140675627173
a(lp1678
S'1500I4'
p1679
aasS'1500I2'
p1680
(lp1681
F0.80512037404970094
aF1.3542504046793125
a(lp1682
S'1500I3'
p1683
aasS'1500I1'
p1684
(lp1685
F0.77555730315447113
aF1.4802932006353429
a(lp1686
S'1500I2'
p1687
aasS'1500I0'
p1688
(lp1689
F0.765625
aF1.609375
a(lp1690
S'1500I1'
p1691
aasS'1512TR'
p1692
(lp1693
F0.75
aF0.25
a(lp1694
S'1512TL'
p1695
aasS'0619BL'
p1696
(lp1697
F0.25
aF0.75
a(lp1698
S'0618O0'
p1699
aasS'1500I9'
p1700
(lp1701
F1.4512720158182948
aF0.78057013219766891
a(lp1702
S'1600BR'
p1703
aasS'1500I8'
p1704
(lp1705
F1.3263377380232222
aF0.81451402421071839
a(lp1706
S'1500I9'
p1707
aasS'1217BR'
p1708
(lp1709
F0.75
aF0.75
a(lp1710
S'1217TR'
p1711
aasS'1503BR'
p1712
(lp1713
F0.75
aF0.75
a(lp1714
S'1603BL'
p1715
aS'1503TR'
p1716
aS'1503CC'
p1717
aasS'0903BR'
p1718
(lp1719
F0.75
aF0.75
a(lp1720
S'1003BL'
p1721
aasS'0718TR'
p1722
(lp1723
F0.75
aF0.25
a(lp1724
S'0717BR'
p1725
aasS'1216BL'
p1726
(lp1727
F0.25
aF0.75
a(lp1728
S'1217TL'
p1729
aasS'1512BR'
p1730
(lp1731
F0.75
aF0.75
a(lp1732
S'1612BL'
p1733
aasS'1719TR'
p1734
(lp1735
F0.75
aF0.25
a(lp1736
S'1719TL'
p1737
aS'1718BR'
p1738
aasS'1719TL'
p1739
(lp1740
F0.25
aF0.25
a(lp1741
S'1619TR'
p1742
aS'1719CC'
p1743
aasS'1216BR'
p1744
(lp1745
F0.75
aF0.75
a(lp1746
S'1115O0'
p1747
aasS'1512BL'
p1748
(lp1749
F0.25
aF0.75
a(lp1750
S'1512BR'
p1751
aasS'0903BL'
p1752
(lp1753
F0.25
aF0.75
a(lp1754
S'0903BR'
p1755
aasS'1503BL'
p1756
(lp1757
F0.25
aF0.75
a(lp1758
S'1503BR'
p1759
aS'1504TL'
p1760
aS'1503CC'
p1761
aasS'1003TR'
p1762
(lp1763
F0.75
aF0.25
a(lp1764
S'1003TL'
p1765
aasS'1904TL'
p1766
(lp1767
F0.25
aF0.25
a(lp1768
S'1904BL'
p1769
aasS'0006BR'
p1770
(lp1771
F0.75
aF0.75
a(lp1772
S'0006TR'
p1773
aasS'1205BR'
p1774
(lp1775
F0.75
aF0.75
a(lp1776
S'1305BL'
p1777
aasS'1218O8'
p1778
(lp1779
F1.1983409297611145
aF1.6863685640310373
a(lp1780
S'1218O9'
p1781
aasS'0706TR'
p1782
(lp1783
F0.75
aF0.25
a(lp1784
S'0705BR'
p1785
aasS'0718TL'
p1786
(lp1787
F0.25
aF0.25
a(lp1788
S'0618I0'
p1789
aasS'1716TL'
p1790
(lp1791
F0.25
aF0.25
a(lp1792
S'1716BL'
p1793
aasS'1716TR'
p1794
(lp1795
F0.75
aF0.25
a(lp1796
S'1715BR'
p1797
aasS'0015CC'
p1798
(lp1799
F0.5
aF0.5
a(lp1800
S'0015TR'
p1801
aS'0015BL'
p1802
aS'0015BR'
p1803
aasS'0706TL'
p1804
(lp1805
F0.25
aF0.25
a(lp1806
S'0706BL'
p1807
aasS'1011I2'
p1808
(lp1809
F1.3542504046793125
aF1.194879625950299
a(lp1810
S'1011I3'
p1811
aasS'0006BL'
p1812
(lp1813
F0.25
aF0.75
a(lp1814
S'0007TL'
p1815
aasS'0915BR'
p1816
(lp1817
F0.75
aF0.75
a(lp1818
S'1015BL'
p1819
aasS'1003TL'
p1820
(lp1821
F0.25
aF0.25
a(lp1822
S'0903TR'
p1823
aasS'1519TR'
p1824
(lp1825
F0.75
aF0.25
a(lp1826
S'1519TL'
p1827
aasS'0619TL'
p1828
(lp1829
F0.25
aF0.25
a(lp1830
S'0519TR'
p1831
aasS'0513TL'
p1832
(lp1833
F0.25
aF0.25
a(lp1834
S'0413TR'
p1835
aS'0513BL'
p1836
aS'0513CC'
p1837
aasS'0012BL'
p1838
(lp1839
F0.25
aF0.75
a(lp1840
S'0013TL'
p1841
aasS'1911TL'
p1842
(lp1843
F0.25
aF0.25
a(lp1844
S'1911BL'
p1845
aasS'0503BR'
p1846
(lp1847
F0.75
aF0.75
a(lp1848
S'0603BL'
p1849
aS'0503CC'
p1850
aasS'1218O9'
p1851
(lp1852
F1.4014098788013858
aF1.7339979560289076
a(lp1853
S'1319BR'
p1854
aasS'1217TL'
p1855
(lp1856
F0.25
aF0.25
a(lp1857
S'1217BL'
p1858
aasS'0503BL'
p1859
(lp1860
F0.25
aF0.75
a(lp1861
S'0503BR'
p1862
aS'0503CC'
p1863
aasS'1911TR'
p1864
(lp1865
F0.75
aF0.25
a(lp1866
S'1910BR'
p1867
aasS'0012BR'
p1868
(lp1869
F0.75
aF0.75
a(lp1870
S'0012TR'
p1871
aasS'0513TR'
p1872
(lp1873
F0.75
aF0.25
a(lp1874
S'0513TL'
p1875
aS'0512BR'
p1876
aS'0513CC'
p1877
aasS'0415TL'
p1878
(lp1879
F0.25
aF0.25
a(lp1880
S'0315TR'
p1881
aasS'0509TR'
p1882
(lp1883
F0.75
aF0.25
a(lp1884
S'0508BR'
p1885
aasS'0207TL'
p1886
(lp1887
F0.25
aF0.25
a(lp1888
S'0207BL'
p1889
aasS'1308TL'
p1890
(lp1891
F0.25
aF0.25
a(lp1892
S'1308BL'
p1893
aasS'1308TR'
p1894
(lp1895
F0.75
aF0.25
a(lp1896
S'1307BR'
p1897
aasS'0207TR'
p1898
(lp1899
F0.75
aF0.25
a(lp1900
S'0206BR'
p1901
aasS'1800TL'
p1902
(lp1903
F0.25
aF0.25
a(lp1904
S'1700TR'
p1905
aasS'1907BL'
p1906
(lp1907
F0.25
aF0.75
a(lp1908
S'1908TL'
p1909
aasS'0608TL'
p1910
(lp1911
F0.25
aF0.25
a(lp1912
S'0508TR'
p1913
aasS'0018I5'
p1914
(lp1915
F1.023256999925221
aF0.99756795653573682
a(lp1916
S'0018I6'
p1917
aasS'1308BL'
p1918
(lp1919
F0.25
aF0.75
a(lp1920
S'1309TL'
p1921
aasS'0703BR'
p1922
(lp1923
F0.75
aF0.75
a(lp1924
S'0803BL'
p1925
aasS'0212I5'
p1926
(lp1927
F1.023256999925221
aF0.99756795653573682
a(lp1928
S'0212I6'
p1929
aasS'0018I3'
p1930
(lp1931
F1.2342140675627173
aF1.1463817977020045
a(lp1932
S'0018I4'
p1933
aasS'1818O3'
p1934
(lp1935
F1.0371766592049054
aF1.5863972787405569
a(lp1936
S'1818O4'
p1937
aasS'1818O2'
p1938
(lp1939
F0.84662947762925278
aF1.6712343498827316
a(lp1940
S'1818O3'
p1941
aasS'1011I5'
p1942
(lp1943
F1.023256999925221
aF0.99756795653573682
a(lp1944
S'1011I6'
p1945
aasS'1818O0'
p1946
(lp1947
F0.43806650332996239
aF1.7491719054790833
a(lp1948
S'1818O1'
p1949
aasS'1818O7'
p1950
(lp1951
F1.6082331740754519
aF0.99505094670451089
a(lp1952
S'1818O8'
p1953
aasS'1818O6'
p1954
(lp1955
F1.5014313461743154
aF1.1742126797933128
a(lp1956
S'1818O7'
p1957
aasS'1818O5'
p1958
(lp1959
F1.3684775410853538
aF1.3349262223426994
a(lp1960
S'1818O6'
p1961
aasS'1818O4'
p1962
(lp1963
F1.2125019217660409
aF1.473407857314142
a(lp1964
S'1818O5'
p1965
aasS'1308BR'
p1966
(lp1967
F0.75
aF0.75
a(lp1968
S'1308TR'
p1969
aasS'1818O8'
p1970
(lp1971
F1.6863685640310373
aF0.80165907023888561
a(lp1972
S'1818O9'
p1973
aasS'0212I8'
p1974
(lp1975
F0.81451402421071839
aF0.67366226197677781
a(lp1976
S'0212I9'
p1977
aasS'1412TR'
p1978
(lp1979
F0.75
aF0.25
a(lp1980
S'1412TL'
p1981
aasS'0607O7'
p1982
(lp1983
F1.6082331740754519
aF0.99505094670451089
a(lp1984
S'0607O8'
p1985
aasS'1311TR'
p1986
(lp1987
F0.75
aF0.25
a(lp1988
S'1310BR'
p1989
aasS'0508TL'
p1990
(lp1991
F0.25
aF0.25
a(lp1992
S'0408TR'
p1993
aasS'1711TR'
p1994
(lp1995
F0.75
aF0.25
a(lp1996
S'1710BR'
p1997
aasS'0700BR'
p1998
(lp1999
F0.75
aF0.75
a(lp2000
S'0800BL'
p2001
aasS'0204BL'
p2002
(lp2003
F0.25
aF0.75
a(lp2004
S'0205TL'
p2005
aasS'1519TL'
p2006
(lp2007
F0.25
aF0.25
a(lp2008
S'1419TR'
p2009
aasS'1901BR'
p2010
(lp2011
F0.75
aF0.75
a(lp2012
S'1800O0'
p2013
aasS'1710BL'
p2014
(lp2015
F0.25
aF0.75
a(lp2016
S'1711TL'
p2017
aasS'1710BR'
p2018
(lp2019
F0.75
aF0.75
a(lp2020
S'1710TR'
p2021
aasS'1619BR'
p2022
(lp2023
F0.75
aF0.75
a(lp2024
S'1719BL'
p2025
aasS'1901BL'
p2026
(lp2027
F0.25
aF0.75
a(lp2028
S'1902TL'
p2029
aasS'0204BR'
p2030
(lp2031
F0.75
aF0.75
a(lp2032
S'0203I0'
p2033
aasS'1000O1'
p2034
(lp2035
F1.7259217314593112
aF1.3546535254850305
a(lp2036
S'1000O2'
p2037
aasS'0700BL'
p2038
(lp2039
F0.25
aF0.75
a(lp2040
S'0700BR'
p2041
aasS'0714BR'
p2042
(lp2043
F0.75
aF0.75
a(lp2044
S'0613O0'
p2045
aasS'1311TL'
p2046
(lp2047
F0.25
aF0.25
a(lp2048
S'1311BL'
p2049
aasS'0014TL'
p2050
(lp2051
F0.25
aF0.25
a(lp2052
S'0014BL'
p2053
aasS'0414I8'
p2054
(lp2055
F0.67366226197677759
aF1.1854859757892817
a(lp2056
S'0414I9'
p2057
aasS'0211BR'
p2058
(lp2059
F0.75
aF0.75
a(lp2060
S'0211TR'
p2061
aasS'0211BL'
p2062
(lp2063
F0.25
aF0.75
a(lp2064
S'0212TL'
p2065
aasS'0915BL'
p2066
(lp2067
F0.25
aF0.75
a(lp2068
S'0915BR'
p2069
aasS'1218I9'
p2070
(lp2071
F0.78057013219766902
aF0.54872798418170543
a(lp2072
S'1218TR'
p2073
aasS'1011O3'
p2074
(lp2075
F0.41360272125944286
aF1.0371766592049048
a(lp2076
S'1011O4'
p2077
aasS'1218I7'
p2078
(lp2079
F0.86717151664379211
aF0.79193292640304436
a(lp2080
S'1218I8'
p2081
aasS'1218I6'
p2082
(lp2083
F0.9373028816670842
aF0.90075550316512853
a(lp2084
S'1218I7'
p2085
aasS'1218I5'
p2086
(lp2087
F1.023256999925221
aF0.99756795653573682
a(lp2088
S'1218I6'
p2089
aasS'1218I4'
p2090
(lp2091
F1.1230102332317369
aF1.0800910079702648
a(lp2092
S'1218I5'
p2093
aasS'1218I3'
p2094
(lp2095
F1.2342140675627173
aF1.1463817977020045
a(lp2096
S'1218I4'
p2097
aasS'1218I2'
p2098
(lp2099
F1.3542504046793125
aF1.194879625950299
a(lp2100
S'1218I3'
p2101
aasS'1218I1'
p2102
(lp2103
F1.4802932006353429
aF1.2244426968455289
a(lp2104
S'1218I2'
p2105
aasS'1218I0'
p2106
(lp2107
F1.609375
aF1.234375
a(lp2108
S'1218I1'
p2109
aasS'1011TR'
p2110
(lp2111
F0.75
aF0.25
a(lp2112
S'1010BR'
p2113
aasS'0500TR'
p2114
(lp2115
F0.75
aF0.25
a(lp2116
S'0500TL'
p2117
aS'0500CC'
p2118
aasS'1011O7'
p2119
(lp2120
F1.004949053295489
aF1.6082331740754519
a(lp2121
S'1011O8'
p2122
aasS'0500TL'
p2123
(lp2124
F0.25
aF0.25
a(lp2125
S'0400TR'
p2126
aasS'1011O4'
p2127
(lp2128
F0.52659214268585797
aF1.2125019217660404
a(lp2129
S'1011O5'
p2130
aasS'1011TL'
p2131
(lp2132
F0.25
aF0.25
a(lp2133
S'1011O0'
p2134
aasS'1906BL'
p2135
(lp2136
F0.25
aF0.75
a(lp2137
S'1907TL'
p2138
aasS'0509BL'
p2139
(lp2140
F0.25
aF0.75
a(lp2141
S'0510TL'
p2142
aasS'1103TR'
p2143
(lp2144
F0.75
aF0.25
a(lp2145
S'1103TL'
p2146
aS'1102BR'
p2147
aS'1103CC'
p2148
aasS'1304TL'
p2149
(lp2150
F0.25
aF0.25
a(lp2151
S'1304BL'
p2152
aasS'0519BL'
p2153
(lp2154
F0.25
aF0.75
a(lp2155
S'0519BR'
p2156
aasS'0308BR'
p2157
(lp2158
F0.75
aF0.75
a(lp2159
S'0408BL'
p2160
aasS'1311BL'
p2161
(lp2162
F0.25
aF0.75
a(lp2163
S'1312TL'
p2164
aasS'1501BR'
p2165
(lp2166
F0.75
aF0.75
a(lp2167
S'1500I0'
p2168
aasS'1717TR'
p2169
(lp2170
F0.75
aF0.25
a(lp2171
S'1716BR'
p2172
aasS'1914TR'
p2173
(lp2174
F0.75
aF0.25
a(lp2175
S'1913BR'
p2176
aasS'0618O0'
p2177
(lp2178
F0.43806650332996239
aF1.7491719054790833
a(lp2179
S'0618O1'
p2180
aasS'0815TR'
p2181
(lp2182
F0.75
aF0.25
a(lp2183
S'0815TL'
p2184
aasS'0815TL'
p2185
(lp2186
F0.25
aF0.25
a(lp2187
S'0715TR'
p2188
aasS'0618O1'
p2189
(lp2190
F0.64534647451496929
aF1.7259217314593112
a(lp2191
S'0618O2'
p2192
aasS'1717TL'
p2193
(lp2194
F0.25
aF0.25
a(lp2195
S'1717BL'
p2196
aasS'1914TL'
p2197
(lp2198
F0.25
aF0.25
a(lp2199
S'1914BL'
p2200
aasS'1311BR'
p2201
(lp2202
F0.75
aF0.75
a(lp2203
S'1311TR'
p2204
aasS'0618O6'
p2205
(lp2206
F1.5014313461743154
aF1.1742126797933128
a(lp2207
S'0618O7'
p2208
aasS'0613I9'
p2209
(lp2210
F1.2194298678023312
aF1.4512720158182948
a(lp2211
S'0714BL'
p2212
aasS'1303CC'
p2213
(lp2214
F0.5
aF0.5
a(lp2215
S'1303TL'
p2216
aS'1303BL'
p2217
aS'1303BR'
p2218
aasS'1304TR'
p2219
(lp2220
F0.75
aF0.25
a(lp2221
S'1303BR'
p2222
aasS'0509BR'
p2223
(lp2224
F0.75
aF0.75
a(lp2225
S'0509TR'
p2226
aasS'1103TL'
p2227
(lp2228
F0.25
aF0.25
a(lp2229
S'1003TR'
p2230
aS'1103BL'
p2231
aS'1103CC'
p2232
aasS'0707TR'
p2233
(lp2234
F0.75
aF0.25
a(lp2235
S'0706BR'
p2236
aasS'0618O4'
p2237
(lp2238
F1.2125019217660409
aF1.473407857314142
a(lp2239
S'0618O5'
p2240
aasS'0415BL'
p2241
(lp2242
F0.25
aF0.75
a(lp2243
S'0414O0'
p2244
aasS'1403TL'
p2245
(lp2246
F0.25
aF0.25
a(lp2247
S'1303TR'
p2248
aasS'1310BL'
p2249
(lp2250
F0.25
aF0.75
a(lp2251
S'1311TL'
p2252
aasS'1403TR'
p2253
(lp2254
F0.75
aF0.25
a(lp2255
S'1403TL'
p2256
aasS'1310BR'
p2257
(lp2258
F0.75
aF0.75
a(lp2259
S'1310TR'
p2260
aasS'0618O8'
p2261
(lp2262
F1.6863685640310373
aF0.80165907023888561
a(lp2263
S'0618O9'
p2264
aasS'0707TL'
p2265
(lp2266
F0.25
aF0.25
a(lp2267
S'0607I0'
p2268
aasS'0212I9'
p2269
(lp2270
F0.78057013219766902
aF0.54872798418170543
a(lp2271
S'0212TR'
p2272
aasS'0203O9'
p2273
(lp2274
F0.26600204397109239
aF1.4014098788013856
a(lp2275
S'0204BL'
p2276
aasS'0500BL'
p2277
(lp2278
F0.25
aF0.75
a(lp2279
S'0500BR'
p2280
aS'0501TL'
p2281
aasS'0018TR'
p2282
(lp2283
F0.75
aF0.25
a(lp2284
S'0017BR'
p2285
aasS'0200TL'
p2286
(lp2287
F0.25
aF0.25
a(lp2288
S'0100TR'
p2289
aasS'1709TR'
p2290
(lp2291
F0.75
aF0.25
a(lp2292
S'1708BR'
p2293
aasS'0015TL'
p2294
(lp2295
F0.25
aF0.25
a(lp2296
S'0015BL'
p2297
aS'0015CC'
p2298
aasS'0200TR'
p2299
(lp2300
F0.75
aF0.25
a(lp2301
S'0200TL'
p2302
aasS'0018TL'
p2303
(lp2304
F0.25
aF0.25
a(lp2305
S'0018O0'
p2306
aasS'0209TL'
p2307
(lp2308
F0.25
aF0.25
a(lp2309
S'0209BL'
p2310
aasS'0500BR'
p2311
(lp2312
F0.75
aF0.75
a(lp2313
S'0600BL'
p2314
aS'0500CC'
p2315
aasS'1310TL'
p2316
(lp2317
F0.25
aF0.25
a(lp2318
S'1310BL'
p2319
aasS'0607O2'
p2320
(lp2321
F0.84662947762925278
aF1.6712343498827316
a(lp2322
S'0607O3'
p2323
aasS'0607O3'
p2324
(lp2325
F1.0371766592049054
aF1.5863972787405569
a(lp2326
S'0607O4'
p2327
aasS'0607O0'
p2328
(lp2329
F0.43806650332996239
aF1.7491719054790833
a(lp2330
S'0607O1'
p2331
aasS'0607O1'
p2332
(lp2333
F0.64534647451496929
aF1.7259217314593112
a(lp2334
S'0607O2'
p2335
aasS'0607O6'
p2336
(lp2337
F1.5014313461743154
aF1.1742126797933128
a(lp2338
S'0607O7'
p2339
aasS'1000TL'
p2340
(lp2341
F0.25
aF0.25
a(lp2342
S'0900TR'
p2343
aasS'0607O4'
p2344
(lp2345
F1.2125019217660409
aF1.473407857314142
a(lp2346
S'0607O5'
p2347
aasS'0607O5'
p2348
(lp2349
F1.3684775410853538
aF1.3349262223426994
a(lp2350
S'0607O6'
p2351
aasS'1706TL'
p2352
(lp2353
F0.25
aF0.25
a(lp2354
S'1706BL'
p2355
aasS'0607O8'
p2356
(lp2357
F1.6863685640310373
aF0.80165907023888561
a(lp2358
S'0607O9'
p2359
aasS'0607O9'
p2360
(lp2361
F1.7339979560289076
aF0.59859012119861421
a(lp2362
S'0707TR'
p2363
aasS'0210BL'
p2364
(lp2365
F0.25
aF0.75
a(lp2366
S'0211TL'
p2367
aasS'0308BL'
p2368
(lp2369
F0.25
aF0.75
a(lp2370
S'0308BR'
p2371
aasS'0018I9'
p2372
(lp2373
F0.78057013219766902
aF0.54872798418170543
a(lp2374
S'0018TR'
p2375
aasS'1709TL'
p2376
(lp2377
F0.25
aF0.25
a(lp2378
S'1709BL'
p2379
aasS'1404I0'
p2380
(lp2381
F1.234375
aF0.390625
a(lp2382
S'1404I1'
p2383
aasS'1711TL'
p2384
(lp2385
F0.25
aF0.25
a(lp2386
S'1711BL'
p2387
aasS'0207BR'
p2388
(lp2389
F0.75
aF0.75
a(lp2390
S'0207TR'
p2391
aasS'0006TR'
p2392
(lp2393
F0.75
aF0.25
a(lp2394
S'0005BR'
p2395
aasS'1912BR'
p2396
(lp2397
F0.75
aF0.75
a(lp2398
S'1912TR'
p2399
aasS'0904TL'
p2400
(lp2401
F0.25
aF0.25
a(lp2402
S'0804TR'
p2403
aasS'1307BL'
p2404
(lp2405
F0.25
aF0.75
a(lp2406
S'1308TL'
p2407
aasS'1307BR'
p2408
(lp2409
F0.75
aF0.75
a(lp2410
S'1307TR'
p2411
aasS'1000BL'
p2412
(lp2413
F0.25
aF0.75
a(lp2414
S'1000I0'
p2415
aasS'1619BL'
p2416
(lp2417
F0.25
aF0.75
a(lp2418
S'1619BR'
p2419
aasS'1912BL'
p2420
(lp2421
F0.25
aF0.75
a(lp2422
S'1913TL'
p2423
aasS'0006TL'
p2424
(lp2425
F0.25
aF0.25
a(lp2426
S'0006BL'
p2427
aasS'1115O8'
p2428
(lp2429
F0.80165907023888583
aF0.3136314359689627
a(lp2430
S'1115O9'
p2431
aasS'0207BL'
p2432
(lp2433
F0.25
aF0.75
a(lp2434
S'0208TL'
p2435
aasS'0002TR'
p2436
(lp2437
F0.75
aF0.25
a(lp2438
S'0001BR'
p2439
aasS'1712TL'
p2440
(lp2441
F0.25
aF0.25
a(lp2442
S'1612TR'
p2443
aS'1712BL'
p2444
aasS'1619TL'
p2445
(lp2446
F0.25
aF0.25
a(lp2447
S'1519TR'
p2448
aasS'1619TR'
p2449
(lp2450
F0.75
aF0.25
a(lp2451
S'1619TL'
p2452
aasS'0008TL'
p2453
(lp2454
F0.25
aF0.25
a(lp2455
S'0008BL'
p2456
aasS'0403BL'
p2457
(lp2458
F0.25
aF0.75
a(lp2459
S'0403BR'
p2460
aasS'0403BR'
p2461
(lp2462
F0.75
aF0.75
a(lp2463
S'0503BL'
p2464
aasS'1904TR'
p2465
(lp2466
F0.75
aF0.25
a(lp2467
S'1903BR'
p2468
aasS'1419BL'
p2469
(lp2470
F0.25
aF0.75
a(lp2471
S'1419BR'
p2472
aasS'0002TL'
p2473
(lp2474
F0.25
aF0.25
a(lp2475
S'0002BL'
p2476
aasS'0212O8'
p2477
(lp2478
F1.1983409297611145
aF1.6863685640310373
a(lp2479
S'0212O9'
p2480
aasS'0009BL'
p2481
(lp2482
F0.25
aF0.75
a(lp2483
S'0010TL'
p2484
aasS'0613O3'
p2485
(lp2486
F1.5863972787405571
aF0.96282334079509502
a(lp2487
S'0613O4'
p2488
aasS'0613BL'
p2489
(lp2490
F0.25
aF0.75
a(lp2491
S'0613I0'
p2492
aasS'0212O0'
p2493
(lp2494
F0.2508280945209167
aF0.4380665033299625
a(lp2495
S'0212O1'
p2496
aasS'0212O1'
p2497
(lp2498
F0.27407826854068884
aF0.64534647451496996
a(lp2499
S'0212O2'
p2500
aasS'0212O2'
p2501
(lp2502
F0.32876565011726866
aF0.84662947762925311
a(lp2503
S'0212O3'
p2504
aasS'0212O3'
p2505
(lp2506
F0.41360272125944286
aF1.0371766592049048
a(lp2507
S'0212O4'
p2508
aasS'0212O4'
p2509
(lp2510
F0.52659214268585797
aF1.2125019217660404
a(lp2511
S'0212O5'
p2512
aasS'0212O5'
p2513
(lp2514
F0.66507377765730047
aF1.3684775410853538
a(lp2515
S'0212O6'
p2516
aasS'0212O6'
p2517
(lp2518
F0.82578732020668744
aF1.5014313461743154
a(lp2519
S'0212O7'
p2520
aasS'0212O7'
p2521
(lp2522
F1.004949053295489
aF1.6082331740754519
a(lp2523
S'0212O8'
p2524
aasS'0009BR'
p2525
(lp2526
F0.75
aF0.75
a(lp2527
S'0009TR'
p2528
aasS'1304BL'
p2529
(lp2530
F0.25
aF0.75
a(lp2531
S'1305TL'
p2532
aasS'1700TL'
p2533
(lp2534
F0.25
aF0.25
a(lp2535
S'1600TR'
p2536
aasS'1112BR'
p2537
(lp2538
F0.75
aF0.75
a(lp2539
S'1212BL'
p2540
aasS'1715BL'
p2541
(lp2542
F0.25
aF0.75
a(lp2543
S'1716TL'
p2544
aasS'0200BR'
p2545
(lp2546
F0.75
aF0.75
a(lp2547
S'0300BL'
p2548
aasS'0613O9'
p2549
(lp2550
F0.59859012119861432
aF0.26600204397109239
a(lp2551
S'0613TL'
p2552
aasS'1705TL'
p2553
(lp2554
F0.25
aF0.25
a(lp2555
S'1705BL'
p2556
aasS'1705TR'
p2557
(lp2558
F0.75
aF0.25
a(lp2559
S'1704BR'
p2560
aasS'0010TL'
p2561
(lp2562
F0.25
aF0.25
a(lp2563
S'0010BL'
p2564
aasS'0018O8'
p2565
(lp2566
F1.1983409297611145
aF1.6863685640310373
a(lp2567
S'0018O9'
p2568
aasS'0018O9'
p2569
(lp2570
F1.4014098788013858
aF1.7339979560289076
a(lp2571
S'0119BR'
p2572
aasS'0200BL'
p2573
(lp2574
F0.25
aF0.75
a(lp2575
S'0200BR'
p2576
aasS'0715TL'
p2577
(lp2578
F0.25
aF0.25
a(lp2579
S'0715BL'
p2580
aS'0715CC'
p2581
aasS'1715BR'
p2582
(lp2583
F0.75
aF0.75
a(lp2584
S'1715TR'
p2585
aasS'0018O5'
p2586
(lp2587
F0.66507377765730047
aF1.3684775410853538
a(lp2588
S'0018O6'
p2589
aasS'0018O6'
p2590
(lp2591
F0.82578732020668744
aF1.5014313461743154
a(lp2592
S'0018O7'
p2593
aasS'0018O7'
p2594
(lp2595
F1.004949053295489
aF1.6082331740754519
a(lp2596
S'0018O8'
p2597
aasS'1700TR'
p2598
(lp2599
F0.75
aF0.25
a(lp2600
S'1700TL'
p2601
aasS'0018O1'
p2602
(lp2603
F0.27407826854068884
aF0.64534647451496996
a(lp2604
S'0018O2'
p2605
aasS'1304BR'
p2606
(lp2607
F0.75
aF0.75
a(lp2608
S'1304TR'
p2609
aasS'0018O3'
p2610
(lp2611
F0.41360272125944286
aF1.0371766592049048
a(lp2612
S'0018O4'
p2613
aasS'1718TL'
p2614
(lp2615
F0.25
aF0.25
a(lp2616
S'1718BL'
p2617
aasS'1715TR'
p2618
(lp2619
F0.75
aF0.25
a(lp2620
S'1714BR'
p2621
aasS'1707BL'
p2622
(lp2623
F0.25
aF0.75
a(lp2624
S'1708TL'
p2625
aasS'1000O8'
p2626
(lp2627
F0.80165907023888583
aF0.3136314359689627
a(lp2628
S'1000O9'
p2629
aasS'1000O9'
p2630
(lp2631
F0.59859012119861432
aF0.26600204397109239
a(lp2632
S'1000TL'
p2633
aasS'0002BL'
p2634
(lp2635
F0.25
aF0.75
a(lp2636
S'0003TL'
p2637
aasS'0212TR'
p2638
(lp2639
F0.75
aF0.25
a(lp2640
S'0211BR'
p2641
aasS'1000O4'
p2642
(lp2643
F1.473407857314142
aF0.78749807823395934
a(lp2644
S'1000O5'
p2645
aasS'1000O5'
p2646
(lp2647
F1.3349262223426994
aF0.6315224589146462
a(lp2648
S'1000O6'
p2649
aasS'1000O6'
p2650
(lp2651
F1.1742126797933126
aF0.49856865382568438
a(lp2652
S'1000O7'
p2653
aasS'1000O7'
p2654
(lp2655
F0.99505094670451033
aF0.39176682592454792
a(lp2656
S'1000O8'
p2657
aasS'1000O0'
p2658
(lp2659
F1.7491719054790833
aF1.561933496670038
a(lp2660
S'1000O1'
p2661
aasS'1102BR'
p2662
(lp2663
F0.75
aF0.75
a(lp2664
S'1102TR'
p2665
aasS'1000O2'
p2666
(lp2667
F1.6712343498827313
aF1.1533705223707467
a(lp2668
S'1000O3'
p2669
aasS'1000O3'
p2670
(lp2671
F1.5863972787405571
aF0.96282334079509502
a(lp2672
S'1000O4'
p2673
aasS'0904I4'
p2674
(lp2675
F0.8769897667682629
aF0.9199089920297352
a(lp2676
S'0904I5'
p2677
aasS'0904I5'
p2678
(lp2679
F0.97674300007477899
aF1.0024320434642631
a(lp2680
S'0904I6'
p2681
aasS'1603BL'
p2682
(lp2683
F0.25
aF0.75
a(lp2684
S'1603I0'
p2685
aasS'0904I7'
p2686
(lp2687
F1.1328284833562079
aF1.2080670735969554
a(lp2688
S'0904I8'
p2689
aasS'0904I0'
p2690
(lp2691
F0.39062499999999983
aF0.765625
a(lp2692
S'0904I1'
p2693
aasS'0904I1'
p2694
(lp2695
F0.51970679936465713
aF0.77555730315447113
a(lp2696
S'0904I2'
p2697
aasS'0904I2'
p2698
(lp2699
F0.64574959532068776
aF0.80512037404970105
a(lp2700
S'0904I3'
p2701
aasS'0904I3'
p2702
(lp2703
F0.76578593243728221
aF0.85361820229799523
a(lp2704
S'0904I4'
p2705
aasS'1102TR'
p2706
(lp2707
F0.75
aF0.25
a(lp2708
S'1101BR'
p2709
aasS'0212TL'
p2710
(lp2711
F0.25
aF0.25
a(lp2712
S'0212O0'
p2713
aasS'0904I8'
p2714
(lp2715
F1.1854859757892815
aF1.3263377380232222
a(lp2716
S'0904I9'
p2717
aasS'0904I9'
p2718
(lp2719
F1.2194298678023312
aF1.4512720158182948
a(lp2720
S'1005BL'
p2721
aasS'1718TR'
p2722
(lp2723
F0.75
aF0.25
a(lp2724
S'1717BR'
p2725
aasS'0514TL'
p2726
(lp2727
F0.25
aF0.25
a(lp2728
S'0414I0'
p2729
aasS'0319BR'
p2730
(lp2731
F0.75
aF0.75
a(lp2732
S'0419BL'
p2733
aasS'1115BL'
p2734
(lp2735
F0.25
aF0.75
a(lp2736
S'1115I0'
p2737
aasS'0003BL'
p2738
(lp2739
F0.25
aF0.75
a(lp2740
S'0004TL'
p2741
aasS'0618I0'
p2742
(lp2743
F1.234375
aF0.390625
a(lp2744
S'0618I1'
p2745
aasS'0618I2'
p2746
(lp2747
F1.194879625950299
aF0.64574959532068754
a(lp2748
S'0618I3'
p2749
aasS'0219BL'
p2750
(lp2751
F0.25
aF0.75
a(lp2752
S'0219BR'
p2753
aasS'0717BL'
p2754
(lp2755
F0.25
aF0.75
a(lp2756
S'0718TL'
p2757
aasS'0003BR'
p2758
(lp2759
F0.75
aF0.75
a(lp2760
S'0003TR'
p2761
aasS'0319BL'
p2762
(lp2763
F0.25
aF0.75
a(lp2764
S'0319BR'
p2765
aasS'0904BL'
p2766
(lp2767
F0.25
aF0.75
a(lp2768
S'0904I0'
p2769
aasS'0003TR'
p2770
(lp2771
F0.75
aF0.25
a(lp2772
S'0002BR'
p2773
aasS'1519BR'
p2774
(lp2775
F0.75
aF0.75
a(lp2776
S'1619BL'
p2777
aasS'1312CC'
p2778
(lp2779
F0.5
aF0.5
a(lp2780
S'1312TL'
p2781
aS'1312TR'
p2782
aS'1312BL'
p2783
aS'1312BR'
p2784
aasS'0618O2'
p2785
(lp2786
F0.84662947762925278
aF1.6712343498827316
a(lp2787
S'0618O3'
p2788
aasS'0618I1'
p2789
(lp2790
F1.2244426968455289
aF0.51970679936465713
a(lp2791
S'0618I2'
p2792
aasS'1008TL'
p2793
(lp2794
F0.25
aF0.25
a(lp2795
S'1008BL'
p2796
aasS'1217TR'
p2797
(lp2798
F0.75
aF0.25
a(lp2799
S'1216BR'
p2800
aasS'0613I7'
p2801
(lp2802
F1.1328284833562079
aF1.2080670735969554
a(lp2803
S'0613I8'
p2804
aasS'1218O1'
p2805
(lp2806
F0.27407826854068884
aF0.64534647451496996
a(lp2807
S'1218O2'
p2808
aasS'0003TL'
p2809
(lp2810
F0.25
aF0.25
a(lp2811
S'0003BL'
p2812
aasS'0613I6'
p2813
(lp2814
F1.0626971183329159
aF1.0992444968348714
a(lp2815
S'0613I7'
p2816
aasS'1006TL'
p2817
(lp2818
F0.25
aF0.25
a(lp2819
S'1006BL'
p2820
aasS'0800BL'
p2821
(lp2822
F0.25
aF0.75
a(lp2823
S'0800BR'
p2824
aasS'1909BR'
p2825
(lp2826
F0.75
aF0.75
a(lp2827
S'1909TR'
p2828
aasS'1403BL'
p2829
(lp2830
F0.25
aF0.75
a(lp2831
S'1403BR'
p2832
aasS'1212TR'
p2833
(lp2834
F0.75
aF0.25
a(lp2835
S'1212TL'
p2836
aasS'0600BL'
p2837
(lp2838
F0.25
aF0.75
a(lp2839
S'0600BR'
p2840
aasS'0613I4'
p2841
(lp2842
F0.8769897667682629
aF0.9199089920297352
a(lp2843
S'0613I5'
p2844
aasS'0600BR'
p2845
(lp2846
F0.75
aF0.75
a(lp2847
S'0700BL'
p2848
aasS'1519BL'
p2849
(lp2850
F0.25
aF0.75
a(lp2851
S'1519BR'
p2852
aasS'1403BR'
p2853
(lp2854
F0.75
aF0.75
a(lp2855
S'1503BL'
p2856
aasS'0714BL'
p2857
(lp2858
F0.25
aF0.75
a(lp2859
S'0715TL'
p2860
aasS'0800BR'
p2861
(lp2862
F0.75
aF0.75
a(lp2863
S'0900BL'
p2864
aasS'1909BL'
p2865
(lp2866
F0.25
aF0.75
a(lp2867
S'1910TL'
p2868
aasS'1006TR'
p2869
(lp2870
F0.75
aF0.25
a(lp2871
S'1005BR'
p2872
aasS'0414O4'
p2873
(lp2874
F1.2125019217660409
aF1.473407857314142
a(lp2875
S'0414O5'
p2876
aasS'0414O5'
p2877
(lp2878
F1.3684775410853538
aF1.3349262223426994
a(lp2879
S'0414O6'
p2880
aasS'0414O6'
p2881
(lp2882
F1.5014313461743154
aF1.1742126797933128
a(lp2883
S'0414O7'
p2884
aasS'0613I8'
p2885
(lp2886
F1.1854859757892815
aF1.3263377380232222
a(lp2887
S'0613I9'
p2888
aasS'0414O0'
p2889
(lp2890
F0.43806650332996239
aF1.7491719054790833
a(lp2891
S'0414O1'
p2892
aasS'0414O1'
p2893
(lp2894
F0.64534647451496929
aF1.7259217314593112
a(lp2895
S'0414O2'
p2896
aasS'0414O2'
p2897
(lp2898
F0.84662947762925278
aF1.6712343498827316
a(lp2899
S'0414O3'
p2900
aasS'0414O3'
p2901
(lp2902
F1.0371766592049054
aF1.5863972787405569
a(lp2903
S'0414O4'
p2904
aasS'1911BL'
p2905
(lp2906
F0.25
aF0.75
a(lp2907
S'1912TL'
p2908
aasS'1915TL'
p2909
(lp2910
F0.25
aF0.25
a(lp2911
S'1915BL'
p2912
aasS'1714BL'
p2913
(lp2914
F0.25
aF0.75
a(lp2915
S'1715TL'
p2916
aasS'0414O8'
p2917
(lp2918
F1.6863685640310373
aF0.80165907023888561
a(lp2919
S'0414O9'
p2920
aasS'0313BR'
p2921
(lp2922
F0.75
aF0.75
a(lp2923
S'0413BL'
p2924
aasS'0705BL'
p2925
(lp2926
F0.25
aF0.75
a(lp2927
S'0706TL'
p2928
aasS'0012TL'
p2929
(lp2930
F0.25
aF0.25
a(lp2931
S'0012BL'
p2932
aasS'0705BR'
p2933
(lp2934
F0.75
aF0.75
a(lp2935
S'0704I0'
p2936
aasS'0012TR'
p2937
(lp2938
F0.75
aF0.25
a(lp2939
S'0011BR'
p2940
aasS'1212BR'
p2941
(lp2942
F0.75
aF0.75
a(lp2943
S'1312BL'
p2944
aasS'1911BR'
p2945
(lp2946
F0.75
aF0.75
a(lp2947
S'1911TR'
p2948
aasS'1818I4'
p2949
(lp2950
F1.0800910079702648
aF0.87698976676826312
a(lp2951
S'1818I5'
p2952
aasS'0014BL'
p2953
(lp2954
F0.25
aF0.75
a(lp2955
S'0015TL'
p2956
aasS'0017TR'
p2957
(lp2958
F0.75
aF0.25
a(lp2959
S'0016BR'
p2960
aasS'0618O3'
p2961
(lp2962
F1.0371766592049054
aF1.5863972787405569
a(lp2963
S'0618O4'
p2964
aasS'0618I4'
p2965
(lp2966
F1.0800910079702648
aF0.87698976676826312
a(lp2967
S'0618I5'
p2968
aasS'1102BL'
p2969
(lp2970
F0.25
aF0.75
a(lp2971
S'1103TL'
p2972
aasS'1907BR'
p2973
(lp2974
F0.75
aF0.75
a(lp2975
S'1907TR'
p2976
aasS'1104I7'
p2977
(lp2978
F0.86717151664379211
aF0.79193292640304436
a(lp2979
S'1104I8'
p2980
aasS'1104I6'
p2981
(lp2982
F0.9373028816670842
aF0.90075550316512853
a(lp2983
S'1104I7'
p2984
aasS'1104I5'
p2985
(lp2986
F1.023256999925221
aF0.99756795653573682
a(lp2987
S'1104I6'
p2988
aasS'1104I4'
p2989
(lp2990
F1.1230102332317369
aF1.0800910079702648
a(lp2991
S'1104I5'
p2992
aasS'1104I3'
p2993
(lp2994
F1.2342140675627173
aF1.1463817977020045
a(lp2995
S'1104I4'
p2996
aasS'1104I2'
p2997
(lp2998
F1.3542504046793125
aF1.194879625950299
a(lp2999
S'1104I3'
p3000
aasS'1104I1'
p3001
(lp3002
F1.4802932006353429
aF1.2244426968455289
a(lp3003
S'1104I2'
p3004
aasS'1104I0'
p3005
(lp3006
F1.609375
aF1.234375
a(lp3007
S'1104I1'
p3008
aasS'0613O2'
p3009
(lp3010
F1.6712343498827313
aF1.1533705223707467
a(lp3011
S'0613O3'
p3012
aasS'1104I9'
p3013
(lp3014
F0.78057013219766902
aF0.54872798418170543
a(lp3015
S'1104TR'
p3016
aasS'1104I8'
p3017
(lp3018
F0.81451402421071839
aF0.67366226197677781
a(lp3019
S'1104I9'
p3020
aasS'1112TR'
p3021
(lp3022
F0.75
aF0.25
a(lp3023
S'1011I0'
p3024
aasS'1203TR'
p3025
(lp3026
F0.75
aF0.25
a(lp3027
S'1203TL'
p3028
aasS'1502TR'
p3029
(lp3030
F0.75
aF0.25
a(lp3031
S'1501BR'
p3032
aasS'1909TL'
p3033
(lp3034
F0.25
aF0.25
a(lp3035
S'1909BL'
p3036
aasS'0800TL'
p3037
(lp3038
F0.25
aF0.25
a(lp3039
S'0700TR'
p3040
aasS'0800TR'
p3041
(lp3042
F0.75
aF0.25
a(lp3043
S'0800TL'
p3044
aasS'1502TL'
p3045
(lp3046
F0.25
aF0.25
a(lp3047
S'1502BL'
p3048
aasS'1909TR'
p3049
(lp3050
F0.75
aF0.25
a(lp3051
S'1908BR'
p3052
aasS'1203TL'
p3053
(lp3054
F0.25
aF0.25
a(lp3055
S'1103TR'
p3056
aasS'0512BR'
p3057
(lp3058
F0.75
aF0.75
a(lp3059
S'0512TR'
p3060
aasS'0618I6'
p3061
(lp3062
F0.90075550316512876
aF1.0626971183329157
a(lp3063
S'0618I7'
p3064
aasS'1714BR'
p3065
(lp3066
F0.75
aF0.75
a(lp3067
S'1714TR'
p3068
aasS'1718BL'
p3069
(lp3070
F0.25
aF0.75
a(lp3071
S'1719TL'
p3072
aasS'1303BL'
p3073
(lp3074
F0.25
aF0.75
a(lp3075
S'1303BR'
p3076
aS'1304TL'
p3077
aasS'1916BR'
p3078
(lp3079
F0.75
aF0.75
a(lp3080
S'1916TR'
p3081
aasS'1916BL'
p3082
(lp3083
F0.25
aF0.75
a(lp3084
S'1917TL'
p3085
aasS'1303BR'
p3086
(lp3087
F0.75
aF0.75
a(lp3088
S'1403BL'
p3089
aS'1303CC'
p3090
aasS'0703TR'
p3091
(lp3092
F0.75
aF0.25
a(lp3093
S'0703TL'
p3094
aasS'0010BR'
p3095
(lp3096
F0.75
aF0.75
a(lp3097
S'0010TR'
p3098
aasS'0613I3'
p3099
(lp3100
F0.76578593243728221
aF0.85361820229799523
a(lp3101
S'0613I4'
p3102
aasS'0613I2'
p3103
(lp3104
F0.64574959532068776
aF0.80512037404970105
a(lp3105
S'0613I3'
p3106
aasS'0613I1'
p3107
(lp3108
F0.51970679936465713
aF0.77555730315447113
a(lp3109
S'0613I2'
p3110
aasS'0613I0'
p3111
(lp3112
F0.39062499999999983
aF0.765625
a(lp3113
S'0613I1'
p3114
aasS'0704O8'
p3115
(lp3116
F0.3136314359689627
aF1.1983409297611147
a(lp3117
S'0704O9'
p3118
aasS'0704O9'
p3119
(lp3120
F0.26600204397109239
aF1.4014098788013856
a(lp3121
S'0705BL'
p3122
aasS'0613I5'
p3123
(lp3124
F0.97674300007477899
aF1.0024320434642631
a(lp3125
S'0613I6'
p3126
aasS'0613TL'
p3127
(lp3128
F0.25
aF0.25
a(lp3129
S'0513TR'
p3130
aasS'0704O4'
p3131
(lp3132
F0.78749807823395956
aF0.52659214268585797
a(lp3133
S'0704O5'
p3134
aasS'0704O5'
p3135
(lp3136
F0.6315224589146462
aF0.66507377765730047
a(lp3137
S'0704O6'
p3138
aasS'0704O6'
p3139
(lp3140
F0.4985686538256846
aF0.82578732020668744
a(lp3141
S'0704O7'
p3142
aasS'0704O7'
p3143
(lp3144
F0.39176682592454815
aF1.0049490532954892
a(lp3145
S'0704O8'
p3146
aasS'0704O0'
p3147
(lp3148
F1.561933496670038
aF0.2508280945209167
a(lp3149
S'0704O1'
p3150
aasS'0704O1'
p3151
(lp3152
F1.3546535254850305
aF0.27407826854068884
a(lp3153
S'0704O2'
p3154
aasS'0704O2'
p3155
(lp3156
F1.1533705223707469
aF0.32876565011726866
a(lp3157
S'0704O3'
p3158
aasS'0704O3'
p3159
(lp3160
F0.96282334079509513
aF0.41360272125944286
a(lp3161
S'0704O4'
p3162
aasS'0014BR'
p3163
(lp3164
F0.75
aF0.75
a(lp3165
S'0014TR'
p3166
aasS'1818I6'
p3167
(lp3168
F0.90075550316512876
aF1.0626971183329157
a(lp3169
S'1818I7'
p3170
aasS'1906TR'
p3171
(lp3172
F0.75
aF0.25
a(lp3173
S'1905BR'
p3174
aasS'1309TR'
p3175
(lp3176
F0.75
aF0.25
a(lp3177
S'1308BR'
p3178
aasS'0503CC'
p3179
(lp3180
F0.5
aF0.5
a(lp3181
S'0503TL'
p3182
aS'0503TR'
p3183
aS'0503BL'
p3184
aS'0503BR'
p3185
aasS'1818I5'
p3186
(lp3187
F0.99756795653573693
aF0.97674300007477899
a(lp3188
S'1818I6'
p3189
aasS'1305CC'
p3190
(lp3191
F0.5
aF0.5
a(lp3192
S'1305TL'
p3193
aS'1305TR'
p3194
aS'1305BL'
p3195
aS'1305BR'
p3196
aasS'0215BR'
p3197
(lp3198
F0.75
aF0.75
a(lp3199
S'0315BL'
p3200
aasS'1714TR'
p3201
(lp3202
F0.75
aF0.25
a(lp3203
S'1713BR'
p3204
aasS'1818I1'
p3205
(lp3206
F1.2244426968455289
aF0.51970679936465713
a(lp3207
S'1818I2'
p3208
aasS'1818I0'
p3209
(lp3210
F1.234375
aF0.390625
a(lp3211
S'1818I1'
p3212
aasS'1818I3'
p3213
(lp3214
F1.1463817977020048
aF0.76578593243728266
a(lp3215
S'1818I4'
p3216
aasS'1818I2'
p3217
(lp3218
F1.194879625950299
aF0.64574959532068754
a(lp3219
S'1818I3'
p3220
aasS'1818I9'
p3221
(lp3222
F0.5487279841817051
aF1.2194298678023312
a(lp3223
S'1819TL'
p3224
aasS'1818I8'
p3225
(lp3226
F0.67366226197677759
aF1.1854859757892817
a(lp3227
S'1818I9'
p3228
aasS'1603O9'
p3229
(lp3230
F0.59859012119861432
aF0.26600204397109239
a(lp3231
S'1603TL'
p3232
aasS'1603O8'
p3233
(lp3234
F0.80165907023888583
aF0.3136314359689627
a(lp3235
S'1603O9'
p3236
aasS'1603O1'
p3237
(lp3238
F1.7259217314593112
aF1.3546535254850305
a(lp3239
S'1603O2'
p3240
aasS'1603O0'
p3241
(lp3242
F1.7491719054790833
aF1.561933496670038
a(lp3243
S'1603O1'
p3244
aasS'1603O3'
p3245
(lp3246
F1.5863972787405571
aF0.96282334079509502
a(lp3247
S'1603O4'
p3248
aasS'1603O2'
p3249
(lp3250
F1.6712343498827313
aF1.1533705223707467
a(lp3251
S'1603O3'
p3252
aasS'1603O5'
p3253
(lp3254
F1.3349262223426994
aF0.6315224589146462
a(lp3255
S'1603O6'
p3256
aasS'1603O4'
p3257
(lp3258
F1.473407857314142
aF0.78749807823395934
a(lp3259
S'1603O5'
p3260
aasS'1603O7'
p3261
(lp3262
F0.99505094670451033
aF0.39176682592454792
a(lp3263
S'1603O8'
p3264
aasS'1603O6'
p3265
(lp3266
F1.1742126797933126
aF0.49856865382568438
a(lp3267
S'1603O7'
p3268
aasS'1700BL'
p3269
(lp3270
F0.25
aF0.75
a(lp3271
S'1700BR'
p3272
aasS'1412TL'
p3273
(lp3274
F0.25
aF0.25
a(lp3275
S'1312TR'
p3276
aasS'1101BR'
p3277
(lp3278
F0.75
aF0.75
a(lp3279
S'1000O0'
p3280
aasS'1800O5'
p3281
(lp3282
F1.3349262223426994
aF0.6315224589146462
a(lp3283
S'1800O6'
p3284
aasS'0209BR'
p3285
(lp3286
F0.75
aF0.75
a(lp3287
S'0209TR'
p3288
aasS'0419TR'
p3289
(lp3290
F0.75
aF0.25
a(lp3291
S'0419TL'
p3292
aasS'1603TL'
p3293
(lp3294
F0.25
aF0.25
a(lp3295
S'1503TR'
p3296
aasS'0209BL'
p3297
(lp3298
F0.25
aF0.75
a(lp3299
S'0210TL'
p3300
aasS'1711BR'
p3301
(lp3302
F0.75
aF0.75
a(lp3303
S'1711TR'
p3304
aasS'1101BL'
p3305
(lp3306
F0.25
aF0.75
a(lp3307
S'1102TL'
p3308
aasS'1700BR'
p3309
(lp3310
F0.75
aF0.75
a(lp3311
S'1800BL'
p3312
aasS'0100BR'
p3313
(lp3314
F0.75
aF0.75
a(lp3315
S'0200BL'
p3316
aasS'0017BL'
p3317
(lp3318
F0.25
aF0.75
a(lp3319
S'0018TL'
p3320
aasS'0413TL'
p3321
(lp3322
F0.25
aF0.25
a(lp3323
S'0313TR'
p3324
aasS'0315TL'
p3325
(lp3326
F0.25
aF0.25
a(lp3327
S'0215TR'
p3328
aasS'0408TR'
p3329
(lp3330
F0.75
aF0.25
a(lp3331
S'0408TL'
p3332
aasS'1718BR'
p3333
(lp3334
F0.75
aF0.75
a(lp3335
S'1718TR'
p3336
aasS'1007TL'
p3337
(lp3338
F0.25
aF0.25
a(lp3339
S'1007BL'
p3340
aasS'1007TR'
p3341
(lp3342
F0.75
aF0.25
a(lp3343
S'1006BR'
p3344
aasS'1115I9'
p3345
(lp3346
F1.2194298678023312
aF1.4512720158182948
a(lp3347
S'1216BL'
p3348
aasS'0408TL'
p3349
(lp3350
F0.25
aF0.25
a(lp3351
S'0308TR'
p3352
aasS'0413TR'
p3353
(lp3354
F0.75
aF0.25
a(lp3355
S'0413TL'
p3356
aasS'0315TR'
p3357
(lp3358
F0.75
aF0.25
a(lp3359
S'0315TL'
p3360
aasS'0017BR'
p3361
(lp3362
F0.75
aF0.75
a(lp3363
S'0017TR'
p3364
aasS'1115I8'
p3365
(lp3366
F1.1854859757892815
aF1.3263377380232222
a(lp3367
S'1115I9'
p3368
aasS'1309BL'
p3369
(lp3370
F0.25
aF0.75
a(lp3371
S'1310TL'
p3372
aasS'0803BL'
p3373
(lp3374
F0.25
aF0.75
a(lp3375
S'0803BR'
p3376
aasS'0007TR'
p3377
(lp3378
F0.75
aF0.25
a(lp3379
S'0006BR'
p3380
aasS'1009TL'
p3381
(lp3382
F0.25
aF0.25
a(lp3383
S'1009BL'
p3384
aasS'1006BR'
p3385
(lp3386
F0.75
aF0.75
a(lp3387
S'1006TR'
p3388
aasS'1712BL'
p3389
(lp3390
F0.25
aF0.75
a(lp3391
S'1713TL'
p3392
aS'1712CC'
p3393
aasS'1115I5'
p3394
(lp3395
F0.97674300007477899
aF1.0024320434642631
a(lp3396
S'1115I6'
p3397
aasS'1006BL'
p3398
(lp3399
F0.25
aF0.75
a(lp3400
S'1007TL'
p3401
aasS'1115I4'
p3402
(lp3403
F0.8769897667682629
aF0.9199089920297352
a(lp3404
S'1115I5'
p3405
aasS'0215TR'
p3406
(lp3407
F0.75
aF0.25
a(lp3408
S'0215TL'
p3409
aasS'0208TL'
p3410
(lp3411
F0.25
aF0.25
a(lp3412
S'0208BL'
p3413
aS'0208CC'
p3414
aasS'0803BR'
p3415
(lp3416
F0.75
aF0.75
a(lp3417
S'0903BL'
p3418
aasS'1309BR'
p3419
(lp3420
F0.75
aF0.75
a(lp3421
S'1309TR'
p3422
aasS'0618I7'
p3423
(lp3424
F0.79193292640304458
aF1.1328284833562079
a(lp3425
S'0618I8'
p3426
aasS'0009TL'
p3427
(lp3428
F0.25
aF0.25
a(lp3429
S'0009BL'
p3430
aasS'1104TL'
p3431
(lp3432
F0.25
aF0.25
a(lp3433
S'1104O0'
p3434
aasS'0215BL'
p3435
(lp3436
F0.25
aF0.75
a(lp3437
S'0215BR'
p3438
aasS'1818O1'
p3439
(lp3440
F0.64534647451496929
aF1.7259217314593112
a(lp3441
S'1818O2'
p3442
aasS'1714TL'
p3443
(lp3444
F0.25
aF0.25
a(lp3445
S'1714BL'
p3446
aasS'1104TR'
p3447
(lp3448
F0.75
aF0.25
a(lp3449
S'1103BR'
p3450
aasS'0715TR'
p3451
(lp3452
F0.75
aF0.25
a(lp3453
S'0714BR'
p3454
aS'0715CC'
p3455
aasS'0009TR'
p3456
(lp3457
F0.75
aF0.25
a(lp3458
S'0008BR'
p3459
aasS'1212TL'
p3460
(lp3461
F0.25
aF0.25
a(lp3462
S'1112TR'
p3463
aasS'0008BL'
p3464
(lp3465
F0.25
aF0.75
a(lp3466
S'0009TL'
p3467
aasS'0205TR'
p3468
(lp3469
F0.75
aF0.25
a(lp3470
S'0204BR'
p3471
aasS'1915BR'
p3472
(lp3473
F0.75
aF0.75
a(lp3474
S'1915TR'
p3475
aasS'0618O9'
p3476
(lp3477
F1.7339979560289076
aF0.59859012119861421
a(lp3478
S'0718TR'
p3479
aasS'1915BL'
p3480
(lp3481
F0.25
aF0.75
a(lp3482
S'1916TL'
p3483
aasS'0205TL'
p3484
(lp3485
F0.25
aF0.25
a(lp3486
S'0205BL'
p3487
aasS'0008BR'
p3488
(lp3489
F0.75
aF0.75
a(lp3490
S'0008TR'
p3491
aasS'1711BL'
p3492
(lp3493
F0.25
aF0.75
a(lp3494
S'1712TL'
p3495
aasS'0005TR'
p3496
(lp3497
F0.75
aF0.25
a(lp3498
S'0004BR'
p3499
aasS'1709BR'
p3500
(lp3501
F0.75
aF0.75
a(lp3502
S'1709TR'
p3503
aasS'1306BR'
p3504
(lp3505
F0.75
aF0.75
a(lp3506
S'1306TR'
p3507
aasS'1115TL'
p3508
(lp3509
F0.25
aF0.25
a(lp3510
S'1015TR'
p3511
aasS'1913BR'
p3512
(lp3513
F0.75
aF0.75
a(lp3514
S'1913TR'
p3515
aasS'0206TR'
p3516
(lp3517
F0.75
aF0.25
a(lp3518
S'0205BR'
p3519
aasS'1719CC'
p3520
(lp3521
F0.5
aF0.5
a(lp3522
S'1719TL'
p3523
aS'1719TR'
p3524
aS'1719BL'
p3525
aS'1719BR'
p3526
aasS'1306BL'
p3527
(lp3528
F0.25
aF0.75
a(lp3529
S'1307TL'
p3530
aasS'1000I1'
p3531
(lp3532
F0.51970679936465713
aF0.77555730315447113
a(lp3533
S'1000I2'
p3534
aasS'1818I7'
p3535
(lp3536
F0.79193292640304458
aF1.1328284833562079
a(lp3537
S'1818I8'
p3538
aasS'1203BR'
p3539
(lp3540
F0.75
aF0.75
a(lp3541
S'1303BL'
p3542
aasS'1303TR'
p3543
(lp3544
F0.75
aF0.25
a(lp3545
S'1303TL'
p3546
aS'1303CC'
p3547
aasS'0018I8'
p3548
(lp3549
F0.81451402421071839
aF0.67366226197677781
a(lp3550
S'0018I9'
p3551
aasS'0900BR'
p3552
(lp3553
F0.75
aF0.75
a(lp3554
S'1000BL'
p3555
aasS'0018I6'
p3556
(lp3557
F0.9373028816670842
aF0.90075550316512853
a(lp3558
S'0018I7'
p3559
aasS'0018I7'
p3560
(lp3561
F0.86717151664379211
aF0.79193292640304436
a(lp3562
S'0018I8'
p3563
aasS'0018I4'
p3564
(lp3565
F1.1230102332317369
aF1.0800910079702648
a(lp3566
S'0018I5'
p3567
aasS'1716BR'
p3568
(lp3569
F0.75
aF0.75
a(lp3570
S'1716TR'
p3571
aasS'0018I2'
p3572
(lp3573
F1.3542504046793125
aF1.194879625950299
a(lp3574
S'0018I3'
p3575
aasS'1115O9'
p3576
(lp3577
F0.59859012119861432
aF0.26600204397109239
a(lp3578
S'1115TL'
p3579
aasS'0018I0'
p3580
(lp3581
F1.609375
aF1.234375
a(lp3582
S'0018I1'
p3583
aasS'0018I1'
p3584
(lp3585
F1.4802932006353429
aF1.2244426968455289
a(lp3586
S'0018I2'
p3587
aasS'0018O4'
p3588
(lp3589
F0.52659214268585797
aF1.2125019217660404
a(lp3590
S'0018O5'
p3591
aasS'1011O8'
p3592
(lp3593
F1.1983409297611145
aF1.6863685640310373
a(lp3594
S'1011O9'
p3595
aasS'1011O9'
p3596
(lp3597
F1.4014098788013858
aF1.7339979560289076
a(lp3598
S'1112BR'
p3599
aasS'1412BL'
p3600
(lp3601
F0.25
aF0.75
a(lp3602
S'1412BR'
p3603
aasS'1011O2'
p3604
(lp3605
F0.32876565011726866
aF0.84662947762925311
a(lp3606
S'1011O3'
p3607
aasS'0900BL'
p3608
(lp3609
F0.25
aF0.75
a(lp3610
S'0900BR'
p3611
aasS'1011O0'
p3612
(lp3613
F0.2508280945209167
aF0.4380665033299625
a(lp3614
S'1011O1'
p3615
aasS'1011O1'
p3616
(lp3617
F0.27407826854068884
aF0.64534647451496996
a(lp3618
S'1011O2'
p3619
aasS'1011O6'
p3620
(lp3621
F0.82578732020668744
aF1.5014313461743154
a(lp3622
S'1011O7'
p3623
aasS'1303TL'
p3624
(lp3625
F0.25
aF0.25
a(lp3626
S'1203TR'
p3627
aasS'1203BL'
p3628
(lp3629
F0.25
aF0.75
a(lp3630
S'1203BR'
p3631
aasS'1011O5'
p3632
(lp3633
F0.66507377765730047
aF1.3684775410853538
a(lp3634
S'1011O6'
p3635
aasS'0203O2'
p3636
(lp3637
F1.1533705223707469
aF0.32876565011726866
a(lp3638
S'0203O3'
p3639
aasS'0203O3'
p3640
(lp3641
F0.96282334079509513
aF0.41360272125944286
a(lp3642
S'0203O4'
p3643
aasS'0203O0'
p3644
(lp3645
F1.561933496670038
aF0.2508280945209167
a(lp3646
S'0203O1'
p3647
aasS'0203O1'
p3648
(lp3649
F1.3546535254850305
aF0.27407826854068884
a(lp3650
S'0203O2'
p3651
aasS'0203O6'
p3652
(lp3653
F0.4985686538256846
aF0.82578732020668744
a(lp3654
S'0203O7'
p3655
aasS'0203O7'
p3656
(lp3657
F0.39176682592454815
aF1.0049490532954892
a(lp3658
S'0203O8'
p3659
aasS'0203O4'
p3660
(lp3661
F0.78749807823395956
aF0.52659214268585797
a(lp3662
S'0203O5'
p3663
aasS'0203O5'
p3664
(lp3665
F0.6315224589146462
aF0.66507377765730047
a(lp3666
S'0203O6'
p3667
aasS'0018O0'
p3668
(lp3669
F0.2508280945209167
aF0.4380665033299625
a(lp3670
S'0018O1'
p3671
aasS'0203O8'
p3672
(lp3673
F0.3136314359689627
aF1.1983409297611147
a(lp3674
S'0203O9'
p3675
aasS'0803TR'
p3676
(lp3677
F0.75
aF0.25
a(lp3678
S'0803TL'
p3679
aasS'0005BL'
p3680
(lp3681
F0.25
aF0.75
a(lp3682
S'0006TL'
p3683
aasS'1115O3'
p3684
(lp3685
F1.5863972787405571
aF0.96282334079509502
a(lp3686
S'1115O4'
p3687
aasS'0005BR'
p3688
(lp3689
F0.75
aF0.75
a(lp3690
S'0005TR'
p3691
aasS'0803TL'
p3692
(lp3693
F0.25
aF0.25
a(lp3694
S'0703TR'
p3695
aasS'1709BL'
p3696
(lp3697
F0.25
aF0.75
a(lp3698
S'1710TL'
p3699
aasS'1705BL'
p3700
(lp3701
F0.25
aF0.75
a(lp3702
S'1706TL'
p3703
aasS'0209TR'
p3704
(lp3705
F0.75
aF0.25
a(lp3706
S'0208BR'
p3707
aasS'1115O1'
p3708
(lp3709
F1.7259217314593112
aF1.3546535254850305
a(lp3710
S'1115O2'
p3711
aasS'1501BL'
p3712
(lp3713
F0.25
aF0.75
a(lp3714
S'1502TL'
p3715
aasS'0508CC'
p3716
(lp3717
F0.5
aF0.5
a(lp3718
S'0508TL'
p3719
aS'0508BL'
p3720
aS'0508BR'
p3721
aasS'0004TL'
p3722
(lp3723
F0.25
aF0.25
a(lp3724
S'0004BL'
p3725
aasS'1910TL'
p3726
(lp3727
F0.25
aF0.25
a(lp3728
S'1910BL'
p3729
aasS'1404O8'
p3730
(lp3731
F1.6863685640310373
aF0.80165907023888561
a(lp3732
S'1404O9'
p3733
aasS'1404O9'
p3734
(lp3735
F1.7339979560289076
aF0.59859012119861421
a(lp3736
S'1504TR'
p3737
aasS'1404O4'
p3738
(lp3739
F1.2125019217660409
aF1.473407857314142
a(lp3740
S'1404O5'
p3741
aasS'1404O5'
p3742
(lp3743
F1.3684775410853538
aF1.3349262223426994
a(lp3744
S'1404O6'
p3745
aasS'1404O6'
p3746
(lp3747
F1.5014313461743154
aF1.1742126797933128
a(lp3748
S'1404O7'
p3749
aasS'1404O7'
p3750
(lp3751
F1.6082331740754519
aF0.99505094670451089
a(lp3752
S'1404O8'
p3753
aasS'1404O0'
p3754
(lp3755
F0.43806650332996239
aF1.7491719054790833
a(lp3756
S'1404O1'
p3757
aasS'1404O1'
p3758
(lp3759
F0.64534647451496929
aF1.7259217314593112
a(lp3760
S'1404O2'
p3761
aasS'1404O2'
p3762
(lp3763
F0.84662947762925278
aF1.6712343498827316
a(lp3764
S'1404O3'
p3765
aasS'1404O3'
p3766
(lp3767
F1.0371766592049054
aF1.5863972787405569
a(lp3768
S'1404O4'
p3769
aasS'0512TR'
p3770
(lp3771
F0.75
aF0.25
a(lp3772
S'0511BR'
p3773
aasS'0206TL'
p3774
(lp3775
F0.25
aF0.25
a(lp3776
S'0206BL'
p3777
aasS'1907TL'
p3778
(lp3779
F0.25
aF0.25
a(lp3780
S'1907BL'
p3781
aasS'1707BR'
p3782
(lp3783
F0.75
aF0.75
a(lp3784
S'1707TR'
p3785
aasS'1906BR'
p3786
(lp3787
F0.75
aF0.75
a(lp3788
S'1906TR'
p3789
aasS'0715BR'
p3790
(lp3791
F0.75
aF0.75
a(lp3792
S'0815BL'
p3793
aS'0715TR'
p3794
aasS'0004TR'
p3795
(lp3796
F0.75
aF0.25
a(lp3797
S'0003BR'
p3798
aasS'1910TR'
p3799
(lp3800
F0.75
aF0.25
a(lp3801
S'1909BR'
p3802
aasS'1918TL'
p3803
(lp3804
F0.25
aF0.25
a(lp3805
S'1818I0'
p3806
aasS'0005TL'
p3807
(lp3808
F0.25
aF0.25
a(lp3809
S'0005BL'
p3810
aasS'1102TL'
p3811
(lp3812
F0.25
aF0.25
a(lp3813
S'1102BL'
p3814
aasS'1309TL'
p3815
(lp3816
F0.25
aF0.25
a(lp3817
S'1309BL'
p3818
aasS'0703TL'
p3819
(lp3820
F0.25
aF0.25
a(lp3821
S'0603TR'
p3822
aasS'0010BL'
p3823
(lp3824
F0.25
aF0.75
a(lp3825
S'0011TL'
p3826
aasS'1500O1'
p3827
(lp3828
F1.3546535254850305
aF0.27407826854068884
a(lp3829
S'1500O2'
p3830
aasS'1500O0'
p3831
(lp3832
F1.561933496670038
aF0.2508280945209167
a(lp3833
S'1500O1'
p3834
aasS'1500O3'
p3835
(lp3836
F0.96282334079509513
aF0.41360272125944286
a(lp3837
S'1500O4'
p3838
aasS'1500O2'
p3839
(lp3840
F1.1533705223707469
aF0.32876565011726866
a(lp3841
S'1500O3'
p3842
aasS'1500O5'
p3843
(lp3844
F0.6315224589146462
aF0.66507377765730047
a(lp3845
S'1500O6'
p3846
aasS'1500O4'
p3847
(lp3848
F0.78749807823395956
aF0.52659214268585797
a(lp3849
S'1500O5'
p3850
aasS'1500O7'
p3851
(lp3852
F0.39176682592454815
aF1.0049490532954892
a(lp3853
S'1500O8'
p3854
aasS'1500O6'
p3855
(lp3856
F0.4985686538256846
aF0.82578732020668744
a(lp3857
S'1500O7'
p3858
aasS'1500O9'
p3859
(lp3860
F0.26600204397109239
aF1.4014098788013856
a(lp3861
S'1501BL'
p3862
aasS'1500O8'
p3863
(lp3864
F0.3136314359689627
aF1.1983409297611147
a(lp3865
S'1500O9'
p3866
aasS'1800O4'
p3867
(lp3868
F1.473407857314142
aF0.78749807823395934
a(lp3869
S'1800O5'
p3870
aasS'0502TL'
p3871
(lp3872
F0.25
aF0.25
a(lp3873
S'0502BL'
p3874
aasS'1800O6'
p3875
(lp3876
F1.1742126797933126
aF0.49856865382568438
a(lp3877
S'1800O7'
p3878
aasS'1800O7'
p3879
(lp3880
F0.99505094670451033
aF0.39176682592454792
a(lp3881
S'1800O8'
p3882
aasS'1800O0'
p3883
(lp3884
F1.7491719054790833
aF1.561933496670038
a(lp3885
S'1800O1'
p3886
aasS'1800O1'
p3887
(lp3888
F1.7259217314593112
aF1.3546535254850305
a(lp3889
S'1800O2'
p3890
aasS'1800O2'
p3891
(lp3892
F1.6712343498827313
aF1.1533705223707467
a(lp3893
S'1800O3'
p3894
aasS'1800O3'
p3895
(lp3896
F1.5863972787405571
aF0.96282334079509502
a(lp3897
S'1800O4'
p3898
aasS'0419BR'
p3899
(lp3900
F0.75
aF0.75
a(lp3901
S'0519BL'
p3902
aasS'1319TR'
p3903
(lp3904
F0.75
aF0.25
a(lp3905
S'1218I0'
p3906
aasS'1705BR'
p3907
(lp3908
F0.75
aF0.75
a(lp3909
S'1705TR'
p3910
aasS'1800O8'
p3911
(lp3912
F0.80165907023888583
aF0.3136314359689627
a(lp3913
S'1800O9'
p3914
aasS'1800O9'
p3915
(lp3916
F0.59859012119861432
aF0.26600204397109239
a(lp3917
S'1800TL'
p3918
aasS'1903BR'
p3919
(lp3920
F0.75
aF0.75
a(lp3921
S'1903TR'
p3922
aasS'1903BL'
p3923
(lp3924
F0.25
aF0.75
a(lp3925
S'1904TL'
p3926
aasS'1009TR'
p3927
(lp3928
F0.75
aF0.25
a(lp3929
S'1008BR'
p3930
aasS'1712BR'
p3931
(lp3932
F0.75
aF0.75
a(lp3933
S'1712TR'
p3934
aS'1712CC'
p3935
aasS'0315BL'
p3936
(lp3937
F0.25
aF0.75
a(lp3938
S'0315BR'
p3939
aasS'1000I8'
p3940
(lp3941
F1.1854859757892815
aF1.3263377380232222
a(lp3942
S'1000I9'
p3943
aasS'1000I9'
p3944
(lp3945
F1.2194298678023312
aF1.4512720158182948
a(lp3946
S'1101BL'
p3947
aasS'1000I6'
p3948
(lp3949
F1.0626971183329159
aF1.0992444968348714
a(lp3950
S'1000I7'
p3951
aasS'1000I7'
p3952
(lp3953
F1.1328284833562079
aF1.2080670735969554
a(lp3954
S'1000I8'
p3955
aasS'1000I4'
p3956
(lp3957
F0.8769897667682629
aF0.9199089920297352
a(lp3958
S'1000I5'
p3959
aasS'1000I5'
p3960
(lp3961
F0.97674300007477899
aF1.0024320434642631
a(lp3962
S'1000I6'
p3963
aasS'1000I2'
p3964
(lp3965
F0.64574959532068776
aF0.80512037404970105
a(lp3966
S'1000I3'
p3967
aasS'1000I3'
p3968
(lp3969
F0.76578593243728221
aF0.85361820229799523
a(lp3970
S'1000I4'
p3971
aasS'1000I0'
p3972
(lp3973
F0.39062499999999983
aF0.765625
a(lp3974
S'1000I1'
p3975
aasS'0502TR'
p3976
(lp3977
F0.75
aF0.25
a(lp3978
S'0501BR'
p3979
aasS'0904O6'
p3980
(lp3981
F1.1742126797933126
aF0.49856865382568438
a(lp3982
S'0904O7'
p3983
aasS'0904O7'
p3984
(lp3985
F0.99505094670451033
aF0.39176682592454792
a(lp3986
S'0904O8'
p3987
aasS'0904O4'
p3988
(lp3989
F1.473407857314142
aF0.78749807823395934
a(lp3990
S'0904O5'
p3991
aasS'0904O5'
p3992
(lp3993
F1.3349262223426994
aF0.6315224589146462
a(lp3994
S'0904O6'
p3995
aasS'0904O2'
p3996
(lp3997
F1.6712343498827313
aF1.1533705223707467
a(lp3998
S'0904O3'
p3999
aasS'0904O3'
p4000
(lp4001
F1.5863972787405571
aF0.96282334079509502
a(lp4002
S'0904O4'
p4003
aasS'0904O0'
p4004
(lp4005
F1.7491719054790833
aF1.561933496670038
a(lp4006
S'0904O1'
p4007
aasS'0904O1'
p4008
(lp4009
F1.7259217314593112
aF1.3546535254850305
a(lp4010
S'0904O2'
p4011
aasS'0600TL'
p4012
(lp4013
F0.25
aF0.25
a(lp4014
S'0500TR'
p4015
aasS'1115O2'
p4016
(lp4017
F1.6712343498827313
aF1.1533705223707467
a(lp4018
S'1115O3'
p4019
aasS'1010BR'
p4020
(lp4021
F0.75
aF0.75
a(lp4022
S'1010TR'
p4023
aasS'1115O0'
p4024
(lp4025
F1.7491719054790833
aF1.561933496670038
a(lp4026
S'1115O1'
p4027
aasS'1115O7'
p4028
(lp4029
F0.99505094670451033
aF0.39176682592454792
a(lp4030
S'1115O8'
p4031
aasS'0904I6'
p4032
(lp4033
F1.0626971183329159
aF1.0992444968348714
a(lp4034
S'0904I7'
p4035
aasS'0904O8'
p4036
(lp4037
F0.80165907023888583
aF0.3136314359689627
a(lp4038
S'0904O9'
p4039
aasS'0904O9'
p4040
(lp4041
F0.59859012119861432
aF0.26600204397109239
a(lp4042
S'0904TL'
p4043
aasS'0008TR'
p4044
(lp4045
F0.75
aF0.25
a(lp4046
S'0007BR'
p4047
aasS'1010BL'
p4048
(lp4049
F0.25
aF0.75
a(lp4050
S'1011TL'
p4051
aasS'0600TR'
p4052
(lp4053
F0.75
aF0.25
a(lp4054
S'0600TL'
p4055
aasS'0219TL'
p4056
(lp4057
F0.25
aF0.25
a(lp4058
S'0119TR'
p4059
aasS'1918TR'
p4060
(lp4061
F0.75
aF0.25
a(lp4062
S'1917BR'
p4063
aas.